ccopy_reg
_reconstructor
p1
(cml
EntropyTree
p2
c__builtin__
object
p3
NtRp4
(dp5
S'_root'
p6
g1
(cml
EntropyNode
p7
g3
NtRp8
(dp9
S'_label'
p10
Vtemperature
p11
sS'children'
p12
(dp13
F18.5
g1
(g7
g3
NtRp14
(dp15
g10
Vhumidity
p16
sg12
(dp17
F64
g1
(cml
EntropyLeaf
p18
g3
NtRp19
(dp20
S'_value'
p21
I00
sbsF65
g1
(g18
g3
NtRp22
(dp23
g21
I00
sbsF59
g1
(g18
g3
NtRp24
(dp25
g21
I00
sbsF69
g1
(g18
g3
NtRp26
(dp27
g21
I00
sbsF70
g1
(g18
g3
NtRp28
(dp29
g21
I00
sbsF71
g1
(g18
g3
NtRp30
(dp31
g21
I00
sbsF72
g1
(g18
g3
NtRp32
(dp33
g21
I00
sbsF74
g1
(g18
g3
NtRp34
(dp35
g21
I00
sbsF76
g1
(g18
g3
NtRp36
(dp37
g21
I00
sbsF78
g1
(g18
g3
NtRp38
(dp39
g21
I00
sbsF47
g1
(g18
g3
NtRp40
(dp41
g21
I00
sbsF49
g1
(g18
g3
NtRp42
(dp43
g21
I01
sbsF54
g1
(g18
g3
NtRp44
(dp45
g21
I01
sbsF55
g1
(g18
g3
NtRp46
(dp47
g21
I01
sbsF56
g1
(g18
g3
NtRp48
(dp49
g21
I01
sbsF57
g1
(g18
g3
NtRp50
(dp51
g21
I00
sbsF79
g1
(g18
g3
NtRp52
(dp53
g21
I00
sbsF42
g1
(g18
g3
NtRp54
(dp55
g21
I00
sbssbsF21.5
g1
(g7
g3
NtRp56
(dp57
g10
g16
sg12
(dp58
F65
g1
(g18
g3
NtRp59
(dp60
g21
I00
sbsF38
g1
(g18
g3
NtRp61
(dp62
g21
I00
sbsF39
g1
(g18
g3
NtRp63
(dp64
g21
I00
sbsF41
g1
(g7
g3
NtRp65
(dp66
g10
Vpressure
p67
sg12
(dp68
F1012.1
g1
(g18
g3
NtRp69
(dp70
g21
I00
sbsF1009.4
g1
(g18
g3
NtRp71
(dp72
g21
I00
sbssbsF44
g1
(g18
g3
NtRp73
(dp74
g21
I00
sbsF48
g1
(g18
g3
NtRp75
(dp76
g21
I01
sbsF49
g1
(g18
g3
NtRp77
(dp78
g21
I01
sbsF50
g1
(g18
g3
NtRp79
(dp80
g21
I01
sbsF51
g1
(g18
g3
NtRp81
(dp82
g21
I01
sbsF53
g1
(g18
g3
NtRp83
(dp84
g21
I00
sbsF55
g1
(g7
g3
NtRp85
(dp86
g10
g67
sg12
(dp87
F1006.3
g1
(g18
g3
NtRp88
(dp89
g21
I00
sbsF1009.7
g1
(g18
g3
NtRp90
(dp91
g21
I00
sbssbsF56
g1
(g7
g3
NtRp92
(dp93
g10
g67
sg12
(dp94
F1013.4
g1
(g18
g3
NtRp95
(dp96
g21
I00
sbsF1007
g1
(g18
g3
NtRp97
(dp98
g21
I00
sbssbssbsF15.1
g1
(g18
g3
NtRp99
(dp100
g21
I00
sbsF13.5
g1
(g18
g3
NtRp101
(dp102
g21
I00
sbsF19.100000000000001
g1
(g7
g3
NtRp103
(dp104
g10
g16
sg12
(dp105
F64
g1
(g18
g3
NtRp106
(dp107
g21
I00
sbsF66
g1
(g18
g3
NtRp108
(dp109
g21
I00
sbsF68
g1
(g18
g3
NtRp110
(dp111
g21
I00
sbsF69
g1
(g18
g3
NtRp112
(dp113
g21
I00
sbsF70
g1
(g18
g3
NtRp114
(dp115
g21
I00
sbsF71
g1
(g18
g3
NtRp116
(dp117
g21
I00
sbsF42
g1
(g18
g3
NtRp118
(dp119
g21
I00
sbsF43
g1
(g18
g3
NtRp120
(dp121
g21
I00
sbsF76
g1
(g18
g3
NtRp122
(dp123
g21
I00
sbsF45
g1
(g18
g3
NtRp124
(dp125
g21
I00
sbsF46
g1
(g18
g3
NtRp126
(dp127
g21
I00
sbsF50
g1
(g18
g3
NtRp128
(dp129
g21
I00
sbsF51
g1
(g7
g3
NtRp130
(dp131
g10
g67
sg12
(dp132
F1008
g1
(g18
g3
NtRp133
(dp134
g21
I00
sbsF1005.6
g1
(g18
g3
NtRp135
(dp136
g21
I00
sbssbsF52
g1
(g18
g3
NtRp137
(dp138
g21
I00
sbsF62
g1
(g18
g3
NtRp139
(dp140
g21
I00
sbsF56
g1
(g7
g3
NtRp141
(dp142
g10
g67
sg12
(dp143
F1012.8
g1
(g18
g3
NtRp144
(dp145
g21
I00
sbsF1004.6
g1
(g18
g3
NtRp146
(dp147
g21
I00
sbsF1007.7
g1
(g18
g3
NtRp148
(dp149
g21
I00
sbssbsF57
g1
(g18
g3
NtRp150
(dp151
g21
I01
sbsF59
g1
(g18
g3
NtRp152
(dp153
g21
I00
sbsF60
g1
(g7
g3
NtRp154
(dp155
g10
g67
sg12
(dp156
F1005.3
g1
(g18
g3
NtRp157
(dp158
g21
I00
sbsF1010
g1
(g18
g3
NtRp159
(dp160
g21
I00
sbssbsF39
g1
(g18
g3
NtRp161
(dp162
g21
I00
sbsF63
g1
(g18
g3
NtRp163
(dp164
g21
I00
sbssbsF27.399999999999999
g1
(g7
g3
NtRp165
(dp166
g10
g67
sg12
(dp167
F1006.3
g1
(g18
g3
NtRp168
(dp169
g21
I00
sbsF1004.6
g1
(g7
g3
NtRp170
(dp171
g10
g16
sg12
(dp172
F28
g1
(g18
g3
NtRp173
(dp174
g21
I00
sbsF29
g1
(g18
g3
NtRp175
(dp176
g21
I00
sbsF30
g1
(g18
g3
NtRp177
(dp178
g21
I00
sbssbsF1003.9
g1
(g7
g3
NtRp179
(dp180
g10
g16
sg12
(dp181
F29
g1
(g18
g3
NtRp182
(dp183
g21
I00
sbsF23
g1
(g18
g3
NtRp184
(dp185
g21
I00
sbssbsF1001.2
g1
(g18
g3
NtRp186
(dp187
g21
I01
sbsF1006.7
g1
(g18
g3
NtRp188
(dp189
g21
I00
sbsF1003.6
g1
(g7
g3
NtRp190
(dp191
g10
g16
sg12
(dp192
F34
g1
(g18
g3
NtRp193
(dp194
g21
I00
sbsF36
g1
(g18
g3
NtRp195
(dp196
g21
I00
sbsF29
g1
(g18
g3
NtRp197
(dp198
g21
I00
sbsF31
g1
(g18
g3
NtRp199
(dp200
g21
I00
sbssbsF1000.9
g1
(g18
g3
NtRp201
(dp202
g21
I00
sbsF1006
g1
(g18
g3
NtRp203
(dp204
g21
I00
sbsF1008
g1
(g18
g3
NtRp205
(dp206
g21
I00
sbsF1005.6
g1
(g18
g3
NtRp207
(dp208
g21
I00
sbsF1001.9
g1
(g18
g3
NtRp209
(dp210
g21
I00
sbsF1005.3
g1
(g7
g3
NtRp211
(dp212
g10
g16
sg12
(dp213
F37
g1
(g18
g3
NtRp214
(dp215
g21
I00
sbsF22
g1
(g18
g3
NtRp216
(dp217
g21
I00
sbsF31
g1
(g18
g3
NtRp218
(dp219
g21
I00
sbssbsF1004.3
g1
(g18
g3
NtRp220
(dp221
g21
I01
sbsF1001.6
g1
(g18
g3
NtRp222
(dp223
g21
I00
sbssbsF26.199999999999999
g1
(g7
g3
NtRp224
(dp225
g10
g16
sg12
(dp226
F32
g1
(g7
g3
NtRp227
(dp228
g10
g67
sg12
(dp229
F1004.3
g1
(g18
g3
NtRp230
(dp231
g21
I00
sbsF1004.6
g1
(g18
g3
NtRp232
(dp233
g21
I00
sbsF1000.9
g1
(g18
g3
NtRp234
(dp235
g21
I00
sbssbsF33
g1
(g18
g3
NtRp236
(dp237
g21
I00
sbsF34
g1
(g18
g3
NtRp238
(dp239
g21
I01
sbsF35
g1
(g7
g3
NtRp240
(dp241
g10
g67
sg12
(dp242
F1007.3
g1
(g18
g3
NtRp243
(dp244
g21
I00
sbsF1006.7
g1
(g18
g3
NtRp245
(dp246
g21
I00
sbsF1006
g1
(g18
g3
NtRp247
(dp248
g21
I00
sbssbsF36
g1
(g18
g3
NtRp249
(dp250
g21
I00
sbsF37
g1
(g18
g3
NtRp251
(dp252
g21
I00
sbsF20
g1
(g18
g3
NtRp253
(dp254
g21
I01
sbsF23
g1
(g18
g3
NtRp255
(dp256
g21
I01
sbsF24
g1
(g18
g3
NtRp257
(dp258
g21
I01
sbsF25
g1
(g18
g3
NtRp259
(dp260
g21
I01
sbsF27
g1
(g18
g3
NtRp261
(dp262
g21
I01
sbsF28
g1
(g18
g3
NtRp263
(dp264
g21
I00
sbsF29
g1
(g7
g3
NtRp265
(dp266
g10
g67
sg12
(dp267
F1005.6
g1
(g18
g3
NtRp268
(dp269
g21
I00
sbsF1008.4
g1
(g18
g3
NtRp270
(dp271
g21
I00
sbsF1008.7
g1
(g18
g3
NtRp272
(dp273
g21
I00
sbssbsF30
g1
(g7
g3
NtRp274
(dp275
g10
g67
sg12
(dp276
F1004.3
g1
(g18
g3
NtRp277
(dp278
g21
I00
sbsF1003.9
g1
(g18
g3
NtRp279
(dp280
g21
I00
sbsF1007.7
g1
(g18
g3
NtRp281
(dp282
g21
I00
sbssbsF31
g1
(g7
g3
NtRp283
(dp284
g10
g67
sg12
(dp285
F1005.6
g1
(g18
g3
NtRp286
(dp287
g21
I01
sbsF1000.6
g1
(g18
g3
NtRp288
(dp289
g21
I01
sbsF1002.9
g1
(g18
g3
NtRp290
(dp291
g21
I01
sbsF1005
g1
(g18
g3
NtRp292
(dp293
g21
I01
sbssbssbsF14
g1
(g18
g3
NtRp294
(dp295
g21
I00
sbsF15
g1
(g18
g3
NtRp296
(dp297
g21
I00
sbsF16
g1
(g18
g3
NtRp298
(dp299
g21
I00
sbsF17
g1
(g7
g3
NtRp300
(dp301
g10
g16
sg12
(dp302
F64
g1
(g18
g3
NtRp303
(dp304
g21
I00
sbsF80
g1
(g18
g3
NtRp305
(dp306
g21
I00
sbsF50
g1
(g18
g3
NtRp307
(dp308
g21
I01
sbsF70
g1
(g18
g3
NtRp309
(dp310
g21
I00
sbsF71
g1
(g18
g3
NtRp311
(dp312
g21
I00
sbsF72
g1
(g18
g3
NtRp313
(dp314
g21
I00
sbsF75
g1
(g18
g3
NtRp315
(dp316
g21
I00
sbsF76
g1
(g18
g3
NtRp317
(dp318
g21
I00
sbsF77
g1
(g18
g3
NtRp319
(dp320
g21
I00
sbsF79
g1
(g18
g3
NtRp321
(dp322
g21
I00
sbsF48
g1
(g18
g3
NtRp323
(dp324
g21
I00
sbsF82
g1
(g18
g3
NtRp325
(dp326
g21
I00
sbsF85
g1
(g18
g3
NtRp327
(dp328
g21
I00
sbsF58
g1
(g18
g3
NtRp329
(dp330
g21
I01
sbsF60
g1
(g18
g3
NtRp331
(dp332
g21
I01
sbsF62
g1
(g18
g3
NtRp333
(dp334
g21
I00
sbssbsF18
g1
(g7
g3
NtRp335
(dp336
g10
g16
sg12
(dp337
F69
g1
(g18
g3
NtRp338
(dp339
g21
I00
sbsF72
g1
(g18
g3
NtRp340
(dp341
g21
I00
sbsF74
g1
(g18
g3
NtRp342
(dp343
g21
I00
sbsF76
g1
(g18
g3
NtRp344
(dp345
g21
I00
sbsF45
g1
(g18
g3
NtRp346
(dp347
g21
I00
sbsF80
g1
(g18
g3
NtRp348
(dp349
g21
I00
sbsF81
g1
(g18
g3
NtRp350
(dp351
g21
I00
sbsF50
g1
(g18
g3
NtRp352
(dp353
g21
I00
sbsF57
g1
(g18
g3
NtRp354
(dp355
g21
I01
sbsF58
g1
(g18
g3
NtRp356
(dp357
g21
I00
sbsF59
g1
(g18
g3
NtRp358
(dp359
g21
I00
sbsF60
g1
(g18
g3
NtRp360
(dp361
g21
I00
sbsF61
g1
(g18
g3
NtRp362
(dp363
g21
I00
sbsF62
g1
(g18
g3
NtRp364
(dp365
g21
I00
sbssbsF19
g1
(g7
g3
NtRp366
(dp367
g10
g16
sg12
(dp368
F64
g1
(g18
g3
NtRp369
(dp370
g21
I00
sbsF66
g1
(g18
g3
NtRp371
(dp372
g21
I00
sbsF68
g1
(g18
g3
NtRp373
(dp374
g21
I00
sbsF69
g1
(g18
g3
NtRp375
(dp376
g21
I00
sbsF70
g1
(g18
g3
NtRp377
(dp378
g21
I00
sbsF71
g1
(g18
g3
NtRp379
(dp380
g21
I00
sbsF73
g1
(g18
g3
NtRp381
(dp382
g21
I00
sbsF43
g1
(g18
g3
NtRp383
(dp384
g21
I00
sbsF44
g1
(g18
g3
NtRp385
(dp386
g21
I00
sbsF57
g1
(g18
g3
NtRp387
(dp388
g21
I01
sbsF58
g1
(g18
g3
NtRp389
(dp390
g21
I01
sbsF59
g1
(g18
g3
NtRp391
(dp392
g21
I00
sbsF62
g1
(g18
g3
NtRp393
(dp394
g21
I00
sbssbsF29.899999999999999
g1
(g18
g3
NtRp395
(dp396
g21
I00
sbsF21
g1
(g7
g3
NtRp397
(dp398
g10
g16
sg12
(dp399
F35
g1
(g18
g3
NtRp400
(dp401
g21
I00
sbsF36
g1
(g18
g3
NtRp402
(dp403
g21
I01
sbsF41
g1
(g18
g3
NtRp404
(dp405
g21
I00
sbsF42
g1
(g18
g3
NtRp406
(dp407
g21
I00
sbsF44
g1
(g18
g3
NtRp408
(dp409
g21
I00
sbsF46
g1
(g18
g3
NtRp410
(dp411
g21
I01
sbsF47
g1
(g7
g3
NtRp412
(dp413
g10
g67
sg12
(dp414
F1008
g1
(g18
g3
NtRp415
(dp416
g21
I00
sbsF1008.7
g1
(g18
g3
NtRp417
(dp418
g21
I00
sbssbsF48
g1
(g18
g3
NtRp419
(dp420
g21
I01
sbsF49
g1
(g18
g3
NtRp421
(dp422
g21
I00
sbsF52
g1
(g18
g3
NtRp423
(dp424
g21
I00
sbsF54
g1
(g18
g3
NtRp425
(dp426
g21
I01
sbsF59
g1
(g18
g3
NtRp427
(dp428
g21
I00
sbsF60
g1
(g18
g3
NtRp429
(dp430
g21
I00
sbssbsF22
g1
(g7
g3
NtRp431
(dp432
g10
g16
sg12
(dp433
F37
g1
(g18
g3
NtRp434
(dp435
g21
I00
sbsF40
g1
(g18
g3
NtRp436
(dp437
g21
I01
sbsF42
g1
(g18
g3
NtRp438
(dp439
g21
I00
sbsF43
g1
(g7
g3
NtRp440
(dp441
g10
g67
sg12
(dp442
F1005.3
g1
(g18
g3
NtRp443
(dp444
g21
I00
sbsF1010
g1
(g18
g3
NtRp445
(dp446
g21
I00
sbssbsF44
g1
(g7
g3
NtRp447
(dp448
g10
g67
sg12
(dp449
F1009
g1
(g18
g3
NtRp450
(dp451
g21
I00
sbsF1009.7
g1
(g18
g3
NtRp452
(dp453
g21
I00
sbssbsF45
g1
(g7
g3
NtRp454
(dp455
g10
g67
sg12
(dp456
F1004.3
g1
(g18
g3
NtRp457
(dp458
g21
I01
sbsF1003.9
g1
(g18
g3
NtRp459
(dp460
g21
I01
sbsF1008.7
g1
(g18
g3
NtRp461
(dp462
g21
I01
sbssbsF46
g1
(g7
g3
NtRp463
(dp464
g10
g67
sg12
(dp465
F1004.3
g1
(g18
g3
NtRp466
(dp467
g21
I00
sbsF1009.4
g1
(g18
g3
NtRp468
(dp469
g21
I00
sbssbsF48
g1
(g18
g3
NtRp470
(dp471
g21
I01
sbsF49
g1
(g18
g3
NtRp472
(dp473
g21
I00
sbsF50
g1
(g18
g3
NtRp474
(dp475
g21
I01
sbsF52
g1
(g18
g3
NtRp476
(dp477
g21
I00
sbsF53
g1
(g18
g3
NtRp478
(dp479
g21
I01
sbsF56
g1
(g18
g3
NtRp480
(dp481
g21
I01
sbssbsF23
g1
(g7
g3
NtRp482
(dp483
g10
g67
sg12
(dp484
F1009.7
g1
(g18
g3
NtRp485
(dp486
g21
I00
sbsF1006.7
g1
(g18
g3
NtRp487
(dp488
g21
I00
sbsF1011.1
g1
(g18
g3
NtRp489
(dp490
g21
I00
sbsF1003.9
g1
(g18
g3
NtRp491
(dp492
g21
I00
sbsF1007
g1
(g18
g3
NtRp493
(dp494
g21
I01
sbsF1010
g1
(g18
g3
NtRp495
(dp496
g21
I00
sbsF1012.1
g1
(g18
g3
NtRp497
(dp498
g21
I00
sbsF1012.8
g1
(g18
g3
NtRp499
(dp500
g21
I00
sbsF1007.3
g1
(g18
g3
NtRp501
(dp502
g21
I00
sbssbsF24
g1
(g7
g3
NtRp503
(dp504
g10
g67
sg12
(dp505
F1007.7
g1
(g18
g3
NtRp506
(dp507
g21
I00
sbsF1008.7
g1
(g18
g3
NtRp508
(dp509
g21
I00
sbsF1008.4
g1
(g18
g3
NtRp510
(dp511
g21
I00
sbsF1009.4
g1
(g18
g3
NtRp512
(dp513
g21
I00
sbsF1009.7
g1
(g18
g3
NtRp514
(dp515
g21
I00
sbsF1008
g1
(g7
g3
NtRp516
(dp517
g10
g16
sg12
(dp518
F50
g1
(g18
g3
NtRp519
(dp520
g21
I00
sbsF42
g1
(g18
g3
NtRp521
(dp522
g21
I00
sbssbsF1010
g1
(g18
g3
NtRp523
(dp524
g21
I00
sbsF1006.3
g1
(g18
g3
NtRp525
(dp526
g21
I00
sbsF1007.3
g1
(g18
g3
NtRp527
(dp528
g21
I00
sbssbsF25
g1
(g7
g3
NtRp529
(dp530
g10
g67
sg12
(dp531
F1006.3
g1
(g18
g3
NtRp532
(dp533
g21
I01
sbsF1005.6
g1
(g18
g3
NtRp534
(dp535
g21
I01
sbsF1008.7
g1
(g18
g3
NtRp536
(dp537
g21
I00
sbsF1006.7
g1
(g18
g3
NtRp538
(dp539
g21
I01
sbsF1004.6
g1
(g18
g3
NtRp540
(dp541
g21
I01
sbsF1003.9
g1
(g18
g3
NtRp542
(dp543
g21
I01
sbsF1005
g1
(g18
g3
NtRp544
(dp545
g21
I01
sbsF1006
g1
(g18
g3
NtRp546
(dp547
g21
I00
sbsF1007
g1
(g7
g3
NtRp548
(dp549
g10
g16
sg12
(dp550
F34
g1
(g18
g3
NtRp551
(dp552
g21
I00
sbsF37
g1
(g18
g3
NtRp553
(dp554
g21
I00
sbssbsF1011.1
g1
(g18
g3
NtRp555
(dp556
g21
I00
sbsF1004.3
g1
(g18
g3
NtRp557
(dp558
g21
I00
sbsF1005.3
g1
(g18
g3
NtRp559
(dp560
g21
I00
sbssbsF26
g1
(g7
g3
NtRp561
(dp562
g10
g67
sg12
(dp563
F1004.3
g1
(g18
g3
NtRp564
(dp565
g21
I01
sbsF1004.6
g1
(g7
g3
NtRp566
(dp567
g10
g16
sg12
(dp568
F40
g1
(g18
g3
NtRp569
(dp570
g21
I00
sbsF32
g1
(g18
g3
NtRp571
(dp572
g21
I00
sbssbsF1008.4
g1
(g18
g3
NtRp573
(dp574
g21
I00
sbsF1008.7
g1
(g18
g3
NtRp575
(dp576
g21
I00
sbsF1007.7
g1
(g18
g3
NtRp577
(dp578
g21
I00
sbsF1005.6
g1
(g7
g3
NtRp579
(dp580
g10
g16
sg12
(dp581
F23
g1
(g18
g3
NtRp582
(dp583
g21
I01
sbsF30
g1
(g18
g3
NtRp584
(dp585
g21
I01
sbsF31
g1
(g18
g3
NtRp586
(dp587
g21
I01
sbssbsF1000.9
g1
(g18
g3
NtRp588
(dp589
g21
I01
sbsF1006.7
g1
(g7
g3
NtRp590
(dp591
g10
g16
sg12
(dp592
F35
g1
(g18
g3
NtRp593
(dp594
g21
I00
sbsF36
g1
(g18
g3
NtRp595
(dp596
g21
I00
sbssbsF1006
g1
(g18
g3
NtRp597
(dp598
g21
I01
sbsF1005
g1
(g18
g3
NtRp599
(dp600
g21
I00
sbsF1008
g1
(g18
g3
NtRp601
(dp602
g21
I00
sbsF1009
g1
(g18
g3
NtRp603
(dp604
g21
I00
sbsF1003.6
g1
(g18
g3
NtRp605
(dp606
g21
I01
sbsF1009.4
g1
(g18
g3
NtRp607
(dp608
g21
I00
sbsF1005.3
g1
(g18
g3
NtRp609
(dp610
g21
I01
sbsF1006.3
g1
(g18
g3
NtRp611
(dp612
g21
I01
sbsF1002.6
g1
(g18
g3
NtRp613
(dp614
g21
I01
sbssbsF27
g1
(g7
g3
NtRp615
(dp616
g10
g67
sg12
(dp617
F1003.3
g1
(g18
g3
NtRp618
(dp619
g21
I01
sbsF1006.7
g1
(g18
g3
NtRp620
(dp621
g21
I00
sbsF1001.2
g1
(g18
g3
NtRp622
(dp623
g21
I01
sbsF1000.9
g1
(g18
g3
NtRp624
(dp625
g21
I00
sbsF1001.6
g1
(g18
g3
NtRp626
(dp627
g21
I00
sbsF1006.3
g1
(g18
g3
NtRp628
(dp629
g21
I00
sbsF1004.3
g1
(g18
g3
NtRp630
(dp631
g21
I00
sbsF1007.3
g1
(g18
g3
NtRp632
(dp633
g21
I00
sbsF1005.3
g1
(g18
g3
NtRp634
(dp635
g21
I01
sbssbsF28
g1
(g7
g3
NtRp636
(dp637
g10
g67
sg12
(dp638
F1005.3
g1
(g7
g3
NtRp639
(dp640
g10
g16
sg12
(dp641
F26
g1
(g18
g3
NtRp642
(dp643
g21
I00
sbsF38
g1
(g18
g3
NtRp644
(dp645
g21
I00
sbssbsF1003.9
g1
(g7
g3
NtRp646
(dp647
g10
g16
sg12
(dp648
F21
g1
(g18
g3
NtRp649
(dp650
g21
I00
sbsF31
g1
(g18
g3
NtRp651
(dp652
g21
I00
sbssbsF1005
g1
(g7
g3
NtRp653
(dp654
g10
g16
sg12
(dp655
F33
g1
(g18
g3
NtRp656
(dp657
g21
I00
sbsF21
g1
(g18
g3
NtRp658
(dp659
g21
I00
sbsF22
g1
(g18
g3
NtRp660
(dp661
g21
I00
sbssbsF1003.6
g1
(g18
g3
NtRp662
(dp663
g21
I00
sbsF1004.3
g1
(g7
g3
NtRp664
(dp665
g10
g16
sg12
(dp666
F20
g1
(g18
g3
NtRp667
(dp668
g21
I00
sbsF31
g1
(g18
g3
NtRp669
(dp670
g21
I00
sbssbsF1003.3
g1
(g18
g3
NtRp671
(dp672
g21
I01
sbssbsF29
g1
(g7
g3
NtRp673
(dp674
g10
g67
sg12
(dp675
F1004.3
g1
(g18
g3
NtRp676
(dp677
g21
I01
sbsF1001.9
g1
(g18
g3
NtRp678
(dp679
g21
I00
sbsF1006
g1
(g18
g3
NtRp680
(dp681
g21
I00
sbssbsF14.199999999999999
g1
(g18
g3
NtRp682
(dp683
g21
I00
sbsF20.100000000000001
g1
(g7
g3
NtRp684
(dp685
g10
g67
sg12
(dp686
F1005.3
g1
(g18
g3
NtRp687
(dp688
g21
I00
sbsF1005.6
g1
(g18
g3
NtRp689
(dp690
g21
I00
sbsF1009.4
g1
(g7
g3
NtRp691
(dp692
g10
g16
sg12
(dp693
F42
g1
(g18
g3
NtRp694
(dp695
g21
I01
sbsF43
g1
(g18
g3
NtRp696
(dp697
g21
I01
sbsF38
g1
(g18
g3
NtRp698
(dp699
g21
I01
sbssbsF1006.7
g1
(g18
g3
NtRp700
(dp701
g21
I00
sbsF1007.7
g1
(g18
g3
NtRp702
(dp703
g21
I00
sbsF1008.4
g1
(g18
g3
NtRp704
(dp705
g21
I00
sbsF1002.9
g1
(g18
g3
NtRp706
(dp707
g21
I00
sbsF1006
g1
(g18
g3
NtRp708
(dp709
g21
I00
sbsF1007
g1
(g18
g3
NtRp710
(dp711
g21
I00
sbsF1008
g1
(g18
g3
NtRp712
(dp713
g21
I00
sbsF1009
g1
(g18
g3
NtRp714
(dp715
g21
I00
sbsF1010
g1
(g18
g3
NtRp716
(dp717
g21
I01
sbsF1004.6
g1
(g18
g3
NtRp718
(dp719
g21
I00
sbsF1006.3
g1
(g18
g3
NtRp720
(dp721
g21
I00
sbsF1004.3
g1
(g18
g3
NtRp722
(dp723
g21
I00
sbsF1007.3
g1
(g18
g3
NtRp724
(dp725
g21
I00
sbssbsF21.800000000000001
g1
(g7
g3
NtRp726
(dp727
g10
g16
sg12
(dp728
F34
g1
(g18
g3
NtRp729
(dp730
g21
I00
sbsF35
g1
(g18
g3
NtRp731
(dp732
g21
I00
sbsF36
g1
(g7
g3
NtRp733
(dp734
g10
g67
sg12
(dp735
F1012.1
g1
(g18
g3
NtRp736
(dp737
g21
I00
sbsF1008.7
g1
(g18
g3
NtRp738
(dp739
g21
I00
sbsF1006.7
g1
(g18
g3
NtRp740
(dp741
g21
I00
sbssbsF38
g1
(g18
g3
NtRp742
(dp743
g21
I00
sbsF39
g1
(g18
g3
NtRp744
(dp745
g21
I00
sbsF40
g1
(g18
g3
NtRp746
(dp747
g21
I00
sbsF41
g1
(g18
g3
NtRp748
(dp749
g21
I00
sbsF44
g1
(g18
g3
NtRp750
(dp751
g21
I00
sbsF46
g1
(g7
g3
NtRp752
(dp753
g10
g67
sg12
(dp754
F1010
g1
(g18
g3
NtRp755
(dp756
g21
I00
sbsF1011.1
g1
(g18
g3
NtRp757
(dp758
g21
I00
sbssbsF47
g1
(g18
g3
NtRp759
(dp760
g21
I01
sbsF48
g1
(g18
g3
NtRp761
(dp762
g21
I00
sbsF49
g1
(g18
g3
NtRp763
(dp764
g21
I00
sbsF50
g1
(g18
g3
NtRp765
(dp766
g21
I00
sbsF51
g1
(g18
g3
NtRp767
(dp768
g21
I00
sbsF52
g1
(g18
g3
NtRp769
(dp770
g21
I00
sbsF53
g1
(g18
g3
NtRp771
(dp772
g21
I00
sbsF54
g1
(g18
g3
NtRp773
(dp774
g21
I00
sbsF55
g1
(g18
g3
NtRp775
(dp776
g21
I00
sbssbsF29.5
g1
(g7
g3
NtRp777
(dp778
g10
g16
sg12
(dp779
F25
g1
(g18
g3
NtRp780
(dp781
g21
I01
sbsF26
g1
(g7
g3
NtRp782
(dp783
g10
g67
sg12
(dp784
F1003.3
g1
(g18
g3
NtRp785
(dp786
g21
I01
sbsF1001.9
g1
(g18
g3
NtRp787
(dp788
g21
I01
sbsF1002.3
g1
(g18
g3
NtRp789
(dp790
g21
I01
sbssbssbsF18.199999999999999
g1
(g7
g3
NtRp791
(dp792
g10
g16
sg12
(dp793
F65
g1
(g18
g3
NtRp794
(dp795
g21
I00
sbsF68
g1
(g18
g3
NtRp796
(dp797
g21
I00
sbsF71
g1
(g18
g3
NtRp798
(dp799
g21
I00
sbsF72
g1
(g18
g3
NtRp800
(dp801
g21
I00
sbsF44
g1
(g18
g3
NtRp802
(dp803
g21
I00
sbsF74
g1
(g18
g3
NtRp804
(dp805
g21
I00
sbsF76
g1
(g18
g3
NtRp806
(dp807
g21
I00
sbsF45
g1
(g18
g3
NtRp808
(dp809
g21
I00
sbsF79
g1
(g18
g3
NtRp810
(dp811
g21
I00
sbsF48
g1
(g18
g3
NtRp812
(dp813
g21
I00
sbsF54
g1
(g18
g3
NtRp814
(dp815
g21
I01
sbsF57
g1
(g7
g3
NtRp816
(dp817
g10
g67
sg12
(dp818
F1008
g1
(g18
g3
NtRp819
(dp820
g21
I00
sbsF1007
g1
(g18
g3
NtRp821
(dp822
g21
I00
sbssbsF60
g1
(g7
g3
NtRp823
(dp824
g10
g67
sg12
(dp825
F1010.4
g1
(g18
g3
NtRp826
(dp827
g21
I00
sbsF1007
g1
(g18
g3
NtRp828
(dp829
g21
I00
sbssbssbsF19.899999999999999
g1
(g7
g3
NtRp830
(dp831
g10
g67
sg12
(dp832
F1007.3
g1
(g18
g3
NtRp833
(dp834
g21
I00
sbsF1012.1
g1
(g18
g3
NtRp835
(dp836
g21
I00
sbsF1009.4
g1
(g18
g3
NtRp837
(dp838
g21
I00
sbsF1009.7
g1
(g18
g3
NtRp839
(dp840
g21
I00
sbsF1008.7
g1
(g18
g3
NtRp841
(dp842
g21
I00
sbsF1005.6
g1
(g7
g3
NtRp843
(dp844
g10
g16
sg12
(dp845
F56
g1
(g18
g3
NtRp846
(dp847
g21
I00
sbsF52
g1
(g18
g3
NtRp848
(dp849
g21
I00
sbssbsF1008.4
g1
(g18
g3
NtRp850
(dp851
g21
I00
sbsF1006.7
g1
(g18
g3
NtRp852
(dp853
g21
I00
sbsF1006
g1
(g18
g3
NtRp854
(dp855
g21
I00
sbsF1007
g1
(g18
g3
NtRp856
(dp857
g21
I00
sbsF1008
g1
(g18
g3
NtRp858
(dp859
g21
I00
sbsF1010
g1
(g18
g3
NtRp860
(dp861
g21
I00
sbsF1011.1
g1
(g18
g3
NtRp862
(dp863
g21
I00
sbsF1006.3
g1
(g18
g3
NtRp864
(dp865
g21
I00
sbsF1004.3
g1
(g18
g3
NtRp866
(dp867
g21
I00
sbsF1002.6
g1
(g18
g3
NtRp868
(dp869
g21
I00
sbssbsF22.5
g1
(g7
g3
NtRp870
(dp871
g10
g67
sg12
(dp872
F1009.4
g1
(g18
g3
NtRp873
(dp874
g21
I00
sbsF1005.6
g1
(g18
g3
NtRp875
(dp876
g21
I01
sbsF1012.4
g1
(g18
g3
NtRp877
(dp878
g21
I00
sbsF1009.7
g1
(g18
g3
NtRp879
(dp880
g21
I00
sbsF1010.7
g1
(g18
g3
NtRp881
(dp882
g21
I00
sbsF1008.7
g1
(g18
g3
NtRp883
(dp884
g21
I00
sbsF1010.4
g1
(g18
g3
NtRp885
(dp886
g21
I00
sbsF1008.4
g1
(g18
g3
NtRp887
(dp888
g21
I00
sbsF1007.7
g1
(g18
g3
NtRp889
(dp890
g21
I00
sbsF1005
g1
(g18
g3
NtRp891
(dp892
g21
I01
sbsF1008
g1
(g18
g3
NtRp893
(dp894
g21
I00
sbsF1009
g1
(g18
g3
NtRp895
(dp896
g21
I00
sbsF1010
g1
(g18
g3
NtRp897
(dp898
g21
I00
sbsF1011.1
g1
(g18
g3
NtRp899
(dp900
g21
I00
sbsF1011.4
g1
(g18
g3
NtRp901
(dp902
g21
I00
sbsF1007.3
g1
(g18
g3
NtRp903
(dp904
g21
I00
sbsF1007
g1
(g18
g3
NtRp905
(dp906
g21
I00
sbssbsF15.9
g1
(g18
g3
NtRp907
(dp908
g21
I00
sbsF13.4
g1
(g18
g3
NtRp909
(dp910
g21
I00
sbsF21.300000000000001
g1
(g7
g3
NtRp911
(dp912
g10
g16
sg12
(dp913
F35
g1
(g18
g3
NtRp914
(dp915
g21
I00
sbsF39
g1
(g18
g3
NtRp916
(dp917
g21
I00
sbsF40
g1
(g18
g3
NtRp918
(dp919
g21
I00
sbsF42
g1
(g18
g3
NtRp920
(dp921
g21
I00
sbsF43
g1
(g18
g3
NtRp922
(dp923
g21
I00
sbsF45
g1
(g18
g3
NtRp924
(dp925
g21
I00
sbsF46
g1
(g18
g3
NtRp926
(dp927
g21
I01
sbsF47
g1
(g7
g3
NtRp928
(dp929
g10
g67
sg12
(dp930
F1011.1
g1
(g18
g3
NtRp931
(dp932
g21
I00
sbsF1008.4
g1
(g18
g3
NtRp933
(dp934
g21
I00
sbsF1008.7
g1
(g18
g3
NtRp935
(dp936
g21
I00
sbssbsF51
g1
(g18
g3
NtRp937
(dp938
g21
I00
sbsF52
g1
(g7
g3
NtRp939
(dp940
g10
g67
sg12
(dp941
F1006.3
g1
(g18
g3
NtRp942
(dp943
g21
I00
sbsF1010.4
g1
(g18
g3
NtRp944
(dp945
g21
I00
sbsF1007.7
g1
(g18
g3
NtRp946
(dp947
g21
I00
sbsF1004.3
g1
(g18
g3
NtRp948
(dp949
g21
I00
sbssbsF54
g1
(g18
g3
NtRp950
(dp951
g21
I00
sbsF55
g1
(g18
g3
NtRp952
(dp953
g21
I00
sbsF56
g1
(g18
g3
NtRp954
(dp955
g21
I00
sbsF57
g1
(g7
g3
NtRp956
(dp957
g10
g67
sg12
(dp958
F1007.3
g1
(g18
g3
NtRp959
(dp960
g21
I00
sbsF1011.1
g1
(g18
g3
NtRp961
(dp962
g21
I00
sbsF1009.4
g1
(g18
g3
NtRp963
(dp964
g21
I00
sbssbsF58
g1
(g18
g3
NtRp965
(dp966
g21
I00
sbsF59
g1
(g18
g3
NtRp967
(dp968
g21
I00
sbsF60
g1
(g18
g3
NtRp969
(dp970
g21
I00
sbsF62
g1
(g18
g3
NtRp971
(dp972
g21
I00
sbssbsF20.600000000000001
g1
(g7
g3
NtRp973
(dp974
g10
g16
sg12
(dp975
F65
g1
(g18
g3
NtRp976
(dp977
g21
I00
sbsF67
g1
(g18
g3
NtRp978
(dp979
g21
I00
sbsF36
g1
(g18
g3
NtRp980
(dp981
g21
I00
sbsF70
g1
(g18
g3
NtRp982
(dp983
g21
I00
sbsF42
g1
(g18
g3
NtRp984
(dp985
g21
I00
sbsF44
g1
(g18
g3
NtRp986
(dp987
g21
I00
sbsF46
g1
(g18
g3
NtRp988
(dp989
g21
I00
sbsF47
g1
(g18
g3
NtRp990
(dp991
g21
I00
sbsF49
g1
(g18
g3
NtRp992
(dp993
g21
I00
sbsF50
g1
(g18
g3
NtRp994
(dp995
g21
I00
sbsF51
g1
(g18
g3
NtRp996
(dp997
g21
I00
sbsF52
g1
(g18
g3
NtRp998
(dp999
g21
I00
sbsF54
g1
(g18
g3
NtRp1000
(dp1001
g21
I01
sbsF55
g1
(g18
g3
NtRp1002
(dp1003
g21
I01
sbsF56
g1
(g7
g3
NtRp1004
(dp1005
g10
g67
sg12
(dp1006
F1005.6
g1
(g18
g3
NtRp1007
(dp1008
g21
I00
sbsF1006
g1
(g18
g3
NtRp1009
(dp1010
g21
I00
sbssbsF57
g1
(g18
g3
NtRp1011
(dp1012
g21
I00
sbsF60
g1
(g18
g3
NtRp1013
(dp1014
g21
I00
sbsF61
g1
(g18
g3
NtRp1015
(dp1016
g21
I00
sbsF62
g1
(g18
g3
NtRp1017
(dp1018
g21
I00
sbsF63
g1
(g18
g3
NtRp1019
(dp1020
g21
I00
sbssbsF22.300000000000001
g1
(g7
g3
NtRp1021
(dp1022
g10
g16
sg12
(dp1023
F33
g1
(g18
g3
NtRp1024
(dp1025
g21
I00
sbsF34
g1
(g18
g3
NtRp1026
(dp1027
g21
I00
sbsF36
g1
(g18
g3
NtRp1028
(dp1029
g21
I00
sbsF37
g1
(g18
g3
NtRp1030
(dp1031
g21
I00
sbsF38
g1
(g18
g3
NtRp1032
(dp1033
g21
I00
sbsF40
g1
(g18
g3
NtRp1034
(dp1035
g21
I00
sbsF42
g1
(g7
g3
NtRp1036
(dp1037
g10
g67
sg12
(dp1038
F1008.4
g1
(g18
g3
NtRp1039
(dp1040
g21
I01
sbsF1007
g1
(g18
g3
NtRp1041
(dp1042
g21
I01
sbssbsF43
g1
(g7
g3
NtRp1043
(dp1044
g10
g67
sg12
(dp1045
F1008
g1
(g18
g3
NtRp1046
(dp1047
g21
I00
sbsF1005
g1
(g18
g3
NtRp1048
(dp1049
g21
I00
sbssbsF44
g1
(g18
g3
NtRp1050
(dp1051
g21
I00
sbsF45
g1
(g18
g3
NtRp1052
(dp1053
g21
I00
sbsF46
g1
(g18
g3
NtRp1054
(dp1055
g21
I00
sbsF47
g1
(g7
g3
NtRp1056
(dp1057
g10
g67
sg12
(dp1058
F1007.3
g1
(g18
g3
NtRp1059
(dp1060
g21
I00
sbsF1004.6
g1
(g18
g3
NtRp1061
(dp1062
g21
I00
sbssbsF48
g1
(g18
g3
NtRp1063
(dp1064
g21
I00
sbsF49
g1
(g18
g3
NtRp1065
(dp1066
g21
I00
sbsF50
g1
(g7
g3
NtRp1067
(dp1068
g10
g67
sg12
(dp1069
F1010
g1
(g18
g3
NtRp1070
(dp1071
g21
I00
sbsF1006
g1
(g18
g3
NtRp1072
(dp1073
g21
I00
sbssbsF51
g1
(g18
g3
NtRp1074
(dp1075
g21
I00
sbsF52
g1
(g7
g3
NtRp1076
(dp1077
g10
g67
sg12
(dp1078
F1007.3
g1
(g18
g3
NtRp1079
(dp1080
g21
I00
sbsF1008.7
g1
(g18
g3
NtRp1081
(dp1082
g21
I00
sbssbsF55
g1
(g18
g3
NtRp1083
(dp1084
g21
I00
sbsF57
g1
(g18
g3
NtRp1085
(dp1086
g21
I00
sbsF58
g1
(g18
g3
NtRp1087
(dp1088
g21
I00
sbsF59
g1
(g18
g3
NtRp1089
(dp1090
g21
I00
sbssbsF15.6
g1
(g7
g3
NtRp1091
(dp1092
g10
g16
sg12
(dp1093
F68
g1
(g18
g3
NtRp1094
(dp1095
g21
I00
sbsF76
g1
(g18
g3
NtRp1096
(dp1097
g21
I00
sbsF77
g1
(g18
g3
NtRp1098
(dp1099
g21
I00
sbsF79
g1
(g18
g3
NtRp1100
(dp1101
g21
I00
sbsF80
g1
(g18
g3
NtRp1102
(dp1103
g21
I00
sbsF81
g1
(g18
g3
NtRp1104
(dp1105
g21
I00
sbsF84
g1
(g18
g3
NtRp1106
(dp1107
g21
I00
sbsF85
g1
(g18
g3
NtRp1108
(dp1109
g21
I00
sbsF56
g1
(g18
g3
NtRp1110
(dp1111
g21
I00
sbsF52
g1
(g18
g3
NtRp1112
(dp1113
g21
I00
sbsF58
g1
(g7
g3
NtRp1114
(dp1115
g10
g67
sg12
(dp1116
F1007.3
g1
(g18
g3
NtRp1117
(dp1118
g21
I00
sbsF1008.4
g1
(g18
g3
NtRp1119
(dp1120
g21
I00
sbssbsF59
g1
(g18
g3
NtRp1121
(dp1122
g21
I01
sbssbsF26.699999999999999
g1
(g7
g3
NtRp1123
(dp1124
g10
g67
sg12
(dp1125
F1000.6
g1
(g18
g3
NtRp1126
(dp1127
g21
I01
sbsF1000.9
g1
(g18
g3
NtRp1128
(dp1129
g21
I00
sbsF1007.3
g1
(g18
g3
NtRp1130
(dp1131
g21
I00
sbsF1005.3
g1
(g7
g3
NtRp1132
(dp1133
g10
g16
sg12
(dp1134
F33
g1
(g18
g3
NtRp1135
(dp1136
g21
I00
sbsF34
g1
(g18
g3
NtRp1137
(dp1138
g21
I00
sbsF27
g1
(g18
g3
NtRp1139
(dp1140
g21
I00
sbsF29
g1
(g18
g3
NtRp1141
(dp1142
g21
I00
sbssbsF1006.3
g1
(g7
g3
NtRp1143
(dp1144
g10
g16
sg12
(dp1145
F23
g1
(g18
g3
NtRp1146
(dp1147
g21
I00
sbsF37
g1
(g18
g3
NtRp1148
(dp1149
g21
I00
sbsF31
g1
(g18
g3
NtRp1150
(dp1151
g21
I00
sbssbsF1003.9
g1
(g18
g3
NtRp1152
(dp1153
g21
I01
sbsF1001.6
g1
(g18
g3
NtRp1154
(dp1155
g21
I01
sbsF1005.6
g1
(g18
g3
NtRp1156
(dp1157
g21
I01
sbsF1003.6
g1
(g18
g3
NtRp1158
(dp1159
g21
I01
sbsF1001.9
g1
(g18
g3
NtRp1160
(dp1161
g21
I00
sbsF1008.4
g1
(g18
g3
NtRp1162
(dp1163
g21
I00
sbsF1001.2
g1
(g18
g3
NtRp1164
(dp1165
g21
I01
sbsF1003.3
g1
(g18
g3
NtRp1166
(dp1167
g21
I01
sbsF1006.7
g1
(g18
g3
NtRp1168
(dp1169
g21
I00
sbsF1007.7
g1
(g18
g3
NtRp1170
(dp1171
g21
I00
sbsF1004.6
g1
(g18
g3
NtRp1172
(dp1173
g21
I01
sbsF1005
g1
(g18
g3
NtRp1174
(dp1175
g21
I01
sbsF1006
g1
(g18
g3
NtRp1176
(dp1177
g21
I00
sbsF1007
g1
(g18
g3
NtRp1178
(dp1179
g21
I00
sbsF1008
g1
(g18
g3
NtRp1180
(dp1181
g21
I00
sbsF1004.3
g1
(g18
g3
NtRp1182
(dp1183
g21
I01
sbsF1002.6
g1
(g18
g3
NtRp1184
(dp1185
g21
I00
sbssbsF20.699999999999999
g1
(g7
g3
NtRp1186
(dp1187
g10
g16
sg12
(dp1188
F65
g1
(g18
g3
NtRp1189
(dp1190
g21
I00
sbsF36
g1
(g18
g3
NtRp1191
(dp1192
g21
I00
sbsF41
g1
(g18
g3
NtRp1193
(dp1194
g21
I00
sbsF43
g1
(g7
g3
NtRp1195
(dp1196
g10
g67
sg12
(dp1197
F1007.3
g1
(g18
g3
NtRp1198
(dp1199
g21
I00
sbsF1009.7
g1
(g18
g3
NtRp1200
(dp1201
g21
I00
sbssbsF46
g1
(g18
g3
NtRp1202
(dp1203
g21
I00
sbsF47
g1
(g18
g3
NtRp1204
(dp1205
g21
I01
sbsF48
g1
(g18
g3
NtRp1206
(dp1207
g21
I01
sbsF49
g1
(g18
g3
NtRp1208
(dp1209
g21
I00
sbsF51
g1
(g18
g3
NtRp1210
(dp1211
g21
I00
sbsF52
g1
(g18
g3
NtRp1212
(dp1213
g21
I00
sbsF53
g1
(g7
g3
NtRp1214
(dp1215
g10
g67
sg12
(dp1216
F1008.4
g1
(g18
g3
NtRp1217
(dp1218
g21
I00
sbsF1008.7
g1
(g18
g3
NtRp1219
(dp1220
g21
I00
sbssbsF54
g1
(g18
g3
NtRp1221
(dp1222
g21
I01
sbsF55
g1
(g18
g3
NtRp1223
(dp1224
g21
I00
sbsF56
g1
(g18
g3
NtRp1225
(dp1226
g21
I01
sbsF58
g1
(g7
g3
NtRp1227
(dp1228
g10
g67
sg12
(dp1229
F1009
g1
(g18
g3
NtRp1230
(dp1231
g21
I00
sbsF1003.9
g1
(g18
g3
NtRp1232
(dp1233
g21
I00
sbssbsF60
g1
(g7
g3
NtRp1234
(dp1235
g10
g67
sg12
(dp1236
F1009
g1
(g18
g3
NtRp1237
(dp1238
g21
I00
sbsF1012.1
g1
(g18
g3
NtRp1239
(dp1240
g21
I00
sbsF1009.7
g1
(g18
g3
NtRp1241
(dp1242
g21
I00
sbssbsF61
g1
(g18
g3
NtRp1243
(dp1244
g21
I00
sbssbsF20.399999999999999
g1
(g7
g3
NtRp1245
(dp1246
g10
g67
sg12
(dp1247
F1003.3
g1
(g18
g3
NtRp1248
(dp1249
g21
I00
sbsF1012.1
g1
(g18
g3
NtRp1250
(dp1251
g21
I00
sbsF1007.7
g1
(g18
g3
NtRp1252
(dp1253
g21
I00
sbsF1009.7
g1
(g7
g3
NtRp1254
(dp1255
g10
g16
sg12
(dp1256
F42
g1
(g18
g3
NtRp1257
(dp1258
g21
I00
sbssbsF1008.7
g1
(g18
g3
NtRp1259
(dp1260
g21
I00
sbsF1009.4
g1
(g18
g3
NtRp1261
(dp1262
g21
I00
sbsF1010.4
g1
(g18
g3
NtRp1263
(dp1264
g21
I00
sbsF1006.7
g1
(g18
g3
NtRp1265
(dp1266
g21
I00
sbsF1007
g1
(g18
g3
NtRp1267
(dp1268
g21
I00
sbsF1010
g1
(g7
g3
NtRp1269
(dp1270
g10
g16
sg12
(dp1271
F56
g1
(g18
g3
NtRp1272
(dp1273
g21
I00
sbsF66
g1
(g18
g3
NtRp1274
(dp1275
g21
I00
sbsF60
g1
(g18
g3
NtRp1276
(dp1277
g21
I00
sbssbsF1005.6
g1
(g18
g3
NtRp1278
(dp1279
g21
I00
sbsF1011.7
g1
(g18
g3
NtRp1280
(dp1281
g21
I00
sbsF1010.7
g1
(g18
g3
NtRp1282
(dp1283
g21
I00
sbsF1004.3
g1
(g18
g3
NtRp1284
(dp1285
g21
I00
sbsF1006.3
g1
(g18
g3
NtRp1286
(dp1287
g21
I00
sbssbsF29.300000000000001
g1
(g7
g3
NtRp1288
(dp1289
g10
g67
sg12
(dp1290
F1004.3
g1
(g7
g3
NtRp1291
(dp1292
g10
g16
sg12
(dp1293
F26
g1
(g18
g3
NtRp1294
(dp1295
g21
I00
sbsF22
g1
(g18
g3
NtRp1296
(dp1297
g21
I00
sbsF30
g1
(g18
g3
NtRp1298
(dp1299
g21
I00
sbssbsF1003.6
g1
(g18
g3
NtRp1300
(dp1301
g21
I00
sbsF1001.2
g1
(g18
g3
NtRp1302
(dp1303
g21
I01
sbsF1005.6
g1
(g18
g3
NtRp1304
(dp1305
g21
I00
sbsF1003.9
g1
(g18
g3
NtRp1306
(dp1307
g21
I00
sbsF1004.6
g1
(g7
g3
NtRp1308
(dp1309
g10
g16
sg12
(dp1310
F16
g1
(g18
g3
NtRp1311
(dp1312
g21
I01
sbsF22
g1
(g18
g3
NtRp1313
(dp1314
g21
I01
sbsF14
g1
(g18
g3
NtRp1315
(dp1316
g21
I01
sbsF15
g1
(g18
g3
NtRp1317
(dp1318
g21
I01
sbssbsF1002.3
g1
(g7
g3
NtRp1319
(dp1320
g10
g16
sg12
(dp1321
F25
g1
(g18
g3
NtRp1322
(dp1323
g21
I01
sbsF21
g1
(g18
g3
NtRp1324
(dp1325
g21
I01
sbssbsF1005.3
g1
(g18
g3
NtRp1326
(dp1327
g21
I00
sbsF1003.3
g1
(g18
g3
NtRp1328
(dp1329
g21
I00
sbsF1001.6
g1
(g18
g3
NtRp1330
(dp1331
g21
I01
sbsF1002.6
g1
(g18
g3
NtRp1332
(dp1333
g21
I00
sbssbsF25.399999999999999
g1
(g7
g3
NtRp1334
(dp1335
g10
g67
sg12
(dp1336
F1005.3
g1
(g18
g3
NtRp1337
(dp1338
g21
I01
sbsF1005.6
g1
(g7
g3
NtRp1339
(dp1340
g10
g16
sg12
(dp1341
F34
g1
(g18
g3
NtRp1342
(dp1343
g21
I00
sbsF35
g1
(g18
g3
NtRp1344
(dp1345
g21
I00
sbssbsF1008.4
g1
(g18
g3
NtRp1346
(dp1347
g21
I00
sbsF1006.7
g1
(g18
g3
NtRp1348
(dp1349
g21
I01
sbsF1003.9
g1
(g7
g3
NtRp1350
(dp1351
g10
g16
sg12
(dp1352
F32
g1
(g18
g3
NtRp1353
(dp1354
g21
I00
sbsF36
g1
(g18
g3
NtRp1355
(dp1356
g21
I00
sbssbsF1002.9
g1
(g18
g3
NtRp1357
(dp1358
g21
I00
sbsF1006
g1
(g18
g3
NtRp1359
(dp1360
g21
I01
sbsF1007
g1
(g18
g3
NtRp1361
(dp1362
g21
I01
sbsF1008
g1
(g18
g3
NtRp1363
(dp1364
g21
I00
sbsF1009
g1
(g18
g3
NtRp1365
(dp1366
g21
I00
sbsF1001.6
g1
(g18
g3
NtRp1367
(dp1368
g21
I01
sbsF1007.3
g1
(g18
g3
NtRp1369
(dp1370
g21
I00
sbsF1006.3
g1
(g7
g3
NtRp1371
(dp1372
g10
g16
sg12
(dp1373
F32
g1
(g18
g3
NtRp1374
(dp1375
g21
I00
sbsF33
g1
(g18
g3
NtRp1376
(dp1377
g21
I00
sbssbsF1004.3
g1
(g7
g3
NtRp1378
(dp1379
g10
g16
sg12
(dp1380
F32
g1
(g18
g3
NtRp1381
(dp1382
g21
I00
sbsF34
g1
(g18
g3
NtRp1383
(dp1384
g21
I00
sbssbssbsF12.800000000000001
g1
(g18
g3
NtRp1385
(dp1386
g21
I00
sbsF28.699999999999999
g1
(g7
g3
NtRp1387
(dp1388
g10
g67
sg12
(dp1389
F1003.3
g1
(g18
g3
NtRp1390
(dp1391
g21
I01
sbsF1001.6
g1
(g18
g3
NtRp1392
(dp1393
g21
I01
sbsF1005.6
g1
(g18
g3
NtRp1394
(dp1395
g21
I00
sbsF1003.9
g1
(g7
g3
NtRp1396
(dp1397
g10
g16
sg12
(dp1398
F29
g1
(g18
g3
NtRp1399
(dp1400
g21
I00
sbsF21
g1
(g18
g3
NtRp1401
(dp1402
g21
I00
sbssbsF1006
g1
(g18
g3
NtRp1403
(dp1404
g21
I00
sbsF1004.6
g1
(g7
g3
NtRp1405
(dp1406
g10
g16
sg12
(dp1407
F32
g1
(g18
g3
NtRp1408
(dp1409
g21
I01
sbsF19
g1
(g18
g3
NtRp1410
(dp1411
g21
I01
sbsF20
g1
(g18
g3
NtRp1412
(dp1413
g21
I01
sbssbsF1005.3
g1
(g18
g3
NtRp1414
(dp1415
g21
I00
sbsF1004.3
g1
(g18
g3
NtRp1416
(dp1417
g21
I00
sbsF1002.6
g1
(g18
g3
NtRp1418
(dp1419
g21
I01
sbsF1003.6
g1
(g7
g3
NtRp1420
(dp1421
g10
g16
sg12
(dp1422
F28
g1
(g18
g3
NtRp1423
(dp1424
g21
I00
sbssbssbsF29.100000000000001
g1
(g7
g3
NtRp1425
(dp1426
g10
g67
sg12
(dp1427
F1004.6
g1
(g18
g3
NtRp1428
(dp1429
g21
I01
sbsF1001.2
g1
(g18
g3
NtRp1430
(dp1431
g21
I01
sbsF1002.6
g1
(g18
g3
NtRp1432
(dp1433
g21
I00
sbsF1001.9
g1
(g18
g3
NtRp1434
(dp1435
g21
I00
sbsF1005
g1
(g18
g3
NtRp1436
(dp1437
g21
I01
sbsF1006
g1
(g18
g3
NtRp1438
(dp1439
g21
I00
sbsF1005.6
g1
(g18
g3
NtRp1440
(dp1441
g21
I00
sbsF1002.3
g1
(g7
g3
NtRp1442
(dp1443
g10
g16
sg12
(dp1444
F25
g1
(g18
g3
NtRp1445
(dp1446
g21
I00
sbsF21
g1
(g18
g3
NtRp1447
(dp1448
g21
I00
sbssbsF1004.3
g1
(g18
g3
NtRp1449
(dp1450
g21
I00
sbsF1001.6
g1
(g18
g3
NtRp1451
(dp1452
g21
I01
sbsF1003.6
g1
(g18
g3
NtRp1453
(dp1454
g21
I00
sbssbsF27.600000000000001
g1
(g7
g3
NtRp1455
(dp1456
g10
g16
sg12
(dp1457
F32
g1
(g7
g3
NtRp1458
(dp1459
g10
g67
sg12
(dp1460
F1005.6
g1
(g18
g3
NtRp1461
(dp1462
g21
I00
sbsF1004.6
g1
(g18
g3
NtRp1463
(dp1464
g21
I00
sbsF1003.9
g1
(g18
g3
NtRp1465
(dp1466
g21
I00
sbsF1001.2
g1
(g18
g3
NtRp1467
(dp1468
g21
I00
sbsF1002.9
g1
(g18
g3
NtRp1469
(dp1470
g21
I00
sbssbsF33
g1
(g18
g3
NtRp1471
(dp1472
g21
I00
sbsF34
g1
(g18
g3
NtRp1473
(dp1474
g21
I00
sbsF35
g1
(g18
g3
NtRp1475
(dp1476
g21
I00
sbsF38
g1
(g18
g3
NtRp1477
(dp1478
g21
I00
sbsF39
g1
(g18
g3
NtRp1479
(dp1480
g21
I00
sbsF24
g1
(g7
g3
NtRp1481
(dp1482
g10
g67
sg12
(dp1483
F1004.6
g1
(g18
g3
NtRp1484
(dp1485
g21
I00
sbsF1007
g1
(g18
g3
NtRp1486
(dp1487
g21
I00
sbssbsF25
g1
(g7
g3
NtRp1488
(dp1489
g10
g67
sg12
(dp1490
F1003.6
g1
(g18
g3
NtRp1491
(dp1492
g21
I00
sbsF1007.7
g1
(g18
g3
NtRp1493
(dp1494
g21
I00
sbsF1006
g1
(g18
g3
NtRp1495
(dp1496
g21
I00
sbssbsF26
g1
(g7
g3
NtRp1497
(dp1498
g10
g67
sg12
(dp1499
F1005.6
g1
(g18
g3
NtRp1500
(dp1501
g21
I01
sbsF1004.6
g1
(g18
g3
NtRp1502
(dp1503
g21
I01
sbsF1004.3
g1
(g18
g3
NtRp1504
(dp1505
g21
I01
sbssbsF27
g1
(g18
g3
NtRp1506
(dp1507
g21
I01
sbsF28
g1
(g7
g3
NtRp1508
(dp1509
g10
g67
sg12
(dp1510
F1006.3
g1
(g18
g3
NtRp1511
(dp1512
g21
I00
sbsF1004.6
g1
(g18
g3
NtRp1513
(dp1514
g21
I00
sbsF1006
g1
(g18
g3
NtRp1515
(dp1516
g21
I00
sbsF1003.3
g1
(g18
g3
NtRp1517
(dp1518
g21
I00
sbssbsF29
g1
(g18
g3
NtRp1519
(dp1520
g21
I01
sbsF30
g1
(g18
g3
NtRp1521
(dp1522
g21
I01
sbsF31
g1
(g7
g3
NtRp1523
(dp1524
g10
g67
sg12
(dp1525
F1002.3
g1
(g18
g3
NtRp1526
(dp1527
g21
I00
sbsF1003.6
g1
(g18
g3
NtRp1528
(dp1529
g21
I00
sbsF1003.3
g1
(g18
g3
NtRp1530
(dp1531
g21
I00
sbssbssbsF13.9
g1
(g18
g3
NtRp1532
(dp1533
g21
I00
sbsF18.100000000000001
g1
(g7
g3
NtRp1534
(dp1535
g10
g16
sg12
(dp1536
F65
g1
(g18
g3
NtRp1537
(dp1538
g21
I00
sbsF66
g1
(g18
g3
NtRp1539
(dp1540
g21
I00
sbsF67
g1
(g18
g3
NtRp1541
(dp1542
g21
I00
sbsF68
g1
(g18
g3
NtRp1543
(dp1544
g21
I00
sbsF69
g1
(g18
g3
NtRp1545
(dp1546
g21
I00
sbsF70
g1
(g18
g3
NtRp1547
(dp1548
g21
I00
sbsF73
g1
(g18
g3
NtRp1549
(dp1550
g21
I00
sbsF74
g1
(g18
g3
NtRp1551
(dp1552
g21
I00
sbsF44
g1
(g18
g3
NtRp1553
(dp1554
g21
I00
sbsF80
g1
(g18
g3
NtRp1555
(dp1556
g21
I00
sbsF50
g1
(g18
g3
NtRp1557
(dp1558
g21
I00
sbsF52
g1
(g7
g3
NtRp1559
(dp1560
g10
g67
sg12
(dp1561
F1008.4
g1
(g18
g3
NtRp1562
(dp1563
g21
I00
sbsF1007
g1
(g18
g3
NtRp1564
(dp1565
g21
I00
sbssbsF55
g1
(g7
g3
NtRp1566
(dp1567
g10
g67
sg12
(dp1568
F1008
g1
(g18
g3
NtRp1569
(dp1570
g21
I00
sbsF1005.6
g1
(g18
g3
NtRp1571
(dp1572
g21
I00
sbssbsF56
g1
(g18
g3
NtRp1573
(dp1574
g21
I01
sbsF60
g1
(g18
g3
NtRp1575
(dp1576
g21
I01
sbsF61
g1
(g18
g3
NtRp1577
(dp1578
g21
I00
sbsF62
g1
(g18
g3
NtRp1579
(dp1580
g21
I00
sbsF63
g1
(g18
g3
NtRp1581
(dp1582
g21
I00
sbssbsF22.600000000000001
g1
(g7
g3
NtRp1583
(dp1584
g10
g16
sg12
(dp1585
F33
g1
(g18
g3
NtRp1586
(dp1587
g21
I00
sbsF34
g1
(g18
g3
NtRp1588
(dp1589
g21
I00
sbsF35
g1
(g18
g3
NtRp1590
(dp1591
g21
I00
sbsF36
g1
(g18
g3
NtRp1592
(dp1593
g21
I00
sbsF37
g1
(g18
g3
NtRp1594
(dp1595
g21
I00
sbsF42
g1
(g18
g3
NtRp1596
(dp1597
g21
I00
sbsF43
g1
(g18
g3
NtRp1598
(dp1599
g21
I01
sbsF44
g1
(g7
g3
NtRp1600
(dp1601
g10
g67
sg12
(dp1602
F1007.3
g1
(g18
g3
NtRp1603
(dp1604
g21
I00
sbsF1011.1
g1
(g18
g3
NtRp1605
(dp1606
g21
I00
sbssbsF45
g1
(g18
g3
NtRp1607
(dp1608
g21
I00
sbsF46
g1
(g18
g3
NtRp1609
(dp1610
g21
I00
sbsF47
g1
(g18
g3
NtRp1611
(dp1612
g21
I00
sbsF48
g1
(g18
g3
NtRp1613
(dp1614
g21
I00
sbsF49
g1
(g18
g3
NtRp1615
(dp1616
g21
I00
sbsF50
g1
(g7
g3
NtRp1617
(dp1618
g10
g67
sg12
(dp1619
F1008
g1
(g18
g3
NtRp1620
(dp1621
g21
I01
sbsF1009
g1
(g18
g3
NtRp1622
(dp1623
g21
I01
sbssbsF54
g1
(g18
g3
NtRp1624
(dp1625
g21
I01
sbssbsF19.199999999999999
g1
(g7
g3
NtRp1626
(dp1627
g10
g67
sg12
(dp1628
F1007.3
g1
(g18
g3
NtRp1629
(dp1630
g21
I00
sbsF1012.4
g1
(g18
g3
NtRp1631
(dp1632
g21
I00
sbsF1011.1
g1
(g18
g3
NtRp1633
(dp1634
g21
I00
sbsF1010.4
g1
(g18
g3
NtRp1635
(dp1636
g21
I00
sbsF1008.7
g1
(g7
g3
NtRp1637
(dp1638
g10
g16
sg12
(dp1639
F50
g1
(g18
g3
NtRp1640
(dp1641
g21
I00
sbsF63
g1
(g18
g3
NtRp1642
(dp1643
g21
I00
sbssbsF1009.7
g1
(g18
g3
NtRp1644
(dp1645
g21
I00
sbsF1006.7
g1
(g18
g3
NtRp1646
(dp1647
g21
I00
sbsF1009.4
g1
(g18
g3
NtRp1648
(dp1649
g21
I00
sbsF1008.4
g1
(g18
g3
NtRp1650
(dp1651
g21
I01
sbsF1007.7
g1
(g18
g3
NtRp1652
(dp1653
g21
I00
sbsF1006
g1
(g18
g3
NtRp1654
(dp1655
g21
I00
sbsF1008
g1
(g18
g3
NtRp1656
(dp1657
g21
I00
sbsF1009
g1
(g18
g3
NtRp1658
(dp1659
g21
I00
sbsF1010
g1
(g18
g3
NtRp1660
(dp1661
g21
I00
sbsF1005.6
g1
(g18
g3
NtRp1662
(dp1663
g21
I00
sbsF1006.3
g1
(g18
g3
NtRp1664
(dp1665
g21
I00
sbsF1004.6
g1
(g18
g3
NtRp1666
(dp1667
g21
I01
sbsF1003.3
g1
(g18
g3
NtRp1668
(dp1669
g21
I01
sbsF1003.6
g1
(g18
g3
NtRp1670
(dp1671
g21
I01
sbssbsF20.899999999999999
g1
(g7
g3
NtRp1672
(dp1673
g10
g16
sg12
(dp1674
F34
g1
(g18
g3
NtRp1675
(dp1676
g21
I00
sbsF68
g1
(g18
g3
NtRp1677
(dp1678
g21
I00
sbsF37
g1
(g18
g3
NtRp1679
(dp1680
g21
I00
sbsF39
g1
(g18
g3
NtRp1681
(dp1682
g21
I00
sbsF41
g1
(g18
g3
NtRp1683
(dp1684
g21
I00
sbsF42
g1
(g18
g3
NtRp1685
(dp1686
g21
I00
sbsF43
g1
(g18
g3
NtRp1687
(dp1688
g21
I00
sbsF44
g1
(g18
g3
NtRp1689
(dp1690
g21
I00
sbsF45
g1
(g18
g3
NtRp1691
(dp1692
g21
I00
sbsF46
g1
(g18
g3
NtRp1693
(dp1694
g21
I00
sbsF47
g1
(g18
g3
NtRp1695
(dp1696
g21
I01
sbsF48
g1
(g18
g3
NtRp1697
(dp1698
g21
I00
sbsF49
g1
(g18
g3
NtRp1699
(dp1700
g21
I00
sbsF51
g1
(g18
g3
NtRp1701
(dp1702
g21
I00
sbsF52
g1
(g7
g3
NtRp1703
(dp1704
g10
g67
sg12
(dp1705
F1004.3
g1
(g18
g3
NtRp1706
(dp1707
g21
I00
sbsF1008.4
g1
(g18
g3
NtRp1708
(dp1709
g21
I00
sbssbsF53
g1
(g18
g3
NtRp1710
(dp1711
g21
I01
sbsF54
g1
(g7
g3
NtRp1712
(dp1713
g10
g67
sg12
(dp1714
F1009.7
g1
(g18
g3
NtRp1715
(dp1716
g21
I00
sbsF1011.7
g1
(g18
g3
NtRp1717
(dp1718
g21
I00
sbssbsF55
g1
(g18
g3
NtRp1719
(dp1720
g21
I00
sbsF56
g1
(g18
g3
NtRp1721
(dp1722
g21
I00
sbsF69
g1
(g18
g3
NtRp1723
(dp1724
g21
I00
sbssbsF27.800000000000001
g1
(g7
g3
NtRp1725
(dp1726
g10
g67
sg12
(dp1727
F1004.3
g1
(g7
g3
NtRp1728
(dp1729
g10
g16
sg12
(dp1730
F24
g1
(g18
g3
NtRp1731
(dp1732
g21
I01
sbsF25
g1
(g18
g3
NtRp1733
(dp1734
g21
I01
sbsF35
g1
(g18
g3
NtRp1735
(dp1736
g21
I01
sbsF28
g1
(g18
g3
NtRp1737
(dp1738
g21
I01
sbsF27
g1
(g18
g3
NtRp1739
(dp1740
g21
I01
sbssbsF1003.6
g1
(g7
g3
NtRp1741
(dp1742
g10
g16
sg12
(dp1743
F27
g1
(g18
g3
NtRp1744
(dp1745
g21
I01
sbsF28
g1
(g18
g3
NtRp1746
(dp1747
g21
I01
sbssbsF1003.9
g1
(g18
g3
NtRp1748
(dp1749
g21
I00
sbsF1005.6
g1
(g18
g3
NtRp1750
(dp1751
g21
I00
sbsF1002.9
g1
(g18
g3
NtRp1752
(dp1753
g21
I01
sbsF1005
g1
(g7
g3
NtRp1754
(dp1755
g10
g16
sg12
(dp1756
F25
g1
(g18
g3
NtRp1757
(dp1758
g21
I00
sbsF27
g1
(g18
g3
NtRp1759
(dp1760
g21
I00
sbsF21
g1
(g18
g3
NtRp1761
(dp1762
g21
I00
sbsF29
g1
(g18
g3
NtRp1763
(dp1764
g21
I00
sbssbsF1004.6
g1
(g7
g3
NtRp1765
(dp1766
g10
g16
sg12
(dp1767
F24
g1
(g18
g3
NtRp1768
(dp1769
g21
I01
sbsF26
g1
(g18
g3
NtRp1770
(dp1771
g21
I01
sbsF27
g1
(g18
g3
NtRp1772
(dp1773
g21
I01
sbsF28
g1
(g18
g3
NtRp1774
(dp1775
g21
I01
sbsF31
g1
(g18
g3
NtRp1776
(dp1777
g21
I01
sbssbsF1005.3
g1
(g7
g3
NtRp1778
(dp1779
g10
g16
sg12
(dp1780
F20
g1
(g18
g3
NtRp1781
(dp1782
g21
I00
sbsF28
g1
(g18
g3
NtRp1783
(dp1784
g21
I00
sbsF31
g1
(g18
g3
NtRp1785
(dp1786
g21
I00
sbssbsF1002.3
g1
(g18
g3
NtRp1787
(dp1788
g21
I01
sbsF1002.6
g1
(g18
g3
NtRp1789
(dp1790
g21
I00
sbssbsF12.300000000000001
g1
(g18
g3
NtRp1791
(dp1792
g21
I00
sbsF28.899999999999999
g1
(g7
g3
NtRp1793
(dp1794
g10
g16
sg12
(dp1795
F25
g1
(g7
g3
NtRp1796
(dp1797
g10
g67
sg12
(dp1798
F1002.6
g1
(g18
g3
NtRp1799
(dp1800
g21
I00
sbsF1001.9
g1
(g18
g3
NtRp1801
(dp1802
g21
I00
sbssbsF18
g1
(g18
g3
NtRp1803
(dp1804
g21
I00
sbsF27
g1
(g18
g3
NtRp1805
(dp1806
g21
I00
sbsF26
g1
(g7
g3
NtRp1807
(dp1808
g10
g67
sg12
(dp1809
F1003.3
g1
(g18
g3
NtRp1810
(dp1811
g21
I01
sbsF1001.6
g1
(g18
g3
NtRp1812
(dp1813
g21
I01
sbsF1001.2
g1
(g18
g3
NtRp1814
(dp1815
g21
I01
sbssbsF29
g1
(g18
g3
NtRp1816
(dp1817
g21
I00
sbssbsF27.199999999999999
g1
(g7
g3
NtRp1818
(dp1819
g10
g67
sg12
(dp1820
F1004.3
g1
(g18
g3
NtRp1821
(dp1822
g21
I01
sbsF1003.6
g1
(g18
g3
NtRp1823
(dp1824
g21
I00
sbsF1001.2
g1
(g18
g3
NtRp1825
(dp1826
g21
I01
sbsF1006.7
g1
(g7
g3
NtRp1827
(dp1828
g10
g16
sg12
(dp1829
F25
g1
(g18
g3
NtRp1830
(dp1831
g21
I00
sbsF35
g1
(g18
g3
NtRp1832
(dp1833
g21
I00
sbsF28
g1
(g18
g3
NtRp1834
(dp1835
g21
I00
sbsF37
g1
(g18
g3
NtRp1836
(dp1837
g21
I00
sbssbsF1008.4
g1
(g18
g3
NtRp1838
(dp1839
g21
I00
sbsF1003.9
g1
(g7
g3
NtRp1840
(dp1841
g10
g16
sg12
(dp1842
F28
g1
(g18
g3
NtRp1843
(dp1844
g21
I00
sbsF22
g1
(g18
g3
NtRp1845
(dp1846
g21
I00
sbssbsF1005
g1
(g7
g3
NtRp1847
(dp1848
g10
g16
sg12
(dp1849
F28
g1
(g18
g3
NtRp1850
(dp1851
g21
I00
sbsF29
g1
(g18
g3
NtRp1852
(dp1853
g21
I00
sbsF30
g1
(g18
g3
NtRp1854
(dp1855
g21
I00
sbssbsF1007
g1
(g18
g3
NtRp1856
(dp1857
g21
I00
sbsF1001.6
g1
(g18
g3
NtRp1858
(dp1859
g21
I00
sbsF1007.3
g1
(g18
g3
NtRp1860
(dp1861
g21
I00
sbsF1003.3
g1
(g18
g3
NtRp1862
(dp1863
g21
I01
sbsF1006.3
g1
(g18
g3
NtRp1864
(dp1865
g21
I00
sbsF1002.6
g1
(g18
g3
NtRp1866
(dp1867
g21
I00
sbsF1005.3
g1
(g18
g3
NtRp1868
(dp1869
g21
I01
sbssbsF20
g1
(g7
g3
NtRp1870
(dp1871
g10
g16
sg12
(dp1872
F42
g1
(g18
g3
NtRp1873
(dp1874
g21
I00
sbsF48
g1
(g18
g3
NtRp1875
(dp1876
g21
I01
sbsF49
g1
(g18
g3
NtRp1877
(dp1878
g21
I00
sbsF52
g1
(g18
g3
NtRp1879
(dp1880
g21
I00
sbsF53
g1
(g18
g3
NtRp1881
(dp1882
g21
I00
sbsF57
g1
(g18
g3
NtRp1883
(dp1884
g21
I01
sbsF58
g1
(g18
g3
NtRp1885
(dp1886
g21
I01
sbsF60
g1
(g18
g3
NtRp1887
(dp1888
g21
I01
sbssbsF29.600000000000001
g1
(g7
g3
NtRp1889
(dp1890
g10
g67
sg12
(dp1891
F1002.6
g1
(g18
g3
NtRp1892
(dp1893
g21
I01
sbsF1001.9
g1
(g18
g3
NtRp1894
(dp1895
g21
I01
sbsF1005
g1
(g18
g3
NtRp1896
(dp1897
g21
I00
sbsF1001.6
g1
(g18
g3
NtRp1898
(dp1899
g21
I01
sbsF1002.3
g1
(g18
g3
NtRp1900
(dp1901
g21
I01
sbsF1003.3
g1
(g18
g3
NtRp1902
(dp1903
g21
I00
sbssbsF23.300000000000001
g1
(g7
g3
NtRp1904
(dp1905
g10
g16
sg12
(dp1906
F34
g1
(g18
g3
NtRp1907
(dp1908
g21
I00
sbsF35
g1
(g18
g3
NtRp1909
(dp1910
g21
I00
sbsF37
g1
(g18
g3
NtRp1911
(dp1912
g21
I00
sbsF38
g1
(g18
g3
NtRp1913
(dp1914
g21
I00
sbsF39
g1
(g18
g3
NtRp1915
(dp1916
g21
I00
sbsF40
g1
(g18
g3
NtRp1917
(dp1918
g21
I00
sbsF41
g1
(g18
g3
NtRp1919
(dp1920
g21
I00
sbsF42
g1
(g7
g3
NtRp1921
(dp1922
g10
g67
sg12
(dp1923
F1008
g1
(g18
g3
NtRp1924
(dp1925
g21
I00
sbsF1007.3
g1
(g18
g3
NtRp1926
(dp1927
g21
I00
sbsF1003.9
g1
(g18
g3
NtRp1928
(dp1929
g21
I00
sbssbsF43
g1
(g18
g3
NtRp1930
(dp1931
g21
I00
sbsF44
g1
(g18
g3
NtRp1932
(dp1933
g21
I01
sbsF45
g1
(g18
g3
NtRp1934
(dp1935
g21
I00
sbsF46
g1
(g18
g3
NtRp1936
(dp1937
g21
I00
sbsF47
g1
(g7
g3
NtRp1938
(dp1939
g10
g67
sg12
(dp1940
F1008
g1
(g18
g3
NtRp1941
(dp1942
g21
I01
sbsF1007.3
g1
(g18
g3
NtRp1943
(dp1944
g21
I01
sbsF1005.6
g1
(g18
g3
NtRp1945
(dp1946
g21
I01
sbssbsF48
g1
(g18
g3
NtRp1947
(dp1948
g21
I01
sbsF49
g1
(g18
g3
NtRp1949
(dp1950
g21
I01
sbsF52
g1
(g18
g3
NtRp1951
(dp1952
g21
I00
sbsF30
g1
(g18
g3
NtRp1953
(dp1954
g21
I00
sbssbsF24.600000000000001
g1
(g7
g3
NtRp1955
(dp1956
g10
g16
sg12
(dp1957
F32
g1
(g18
g3
NtRp1958
(dp1959
g21
I01
sbsF33
g1
(g7
g3
NtRp1960
(dp1961
g10
g67
sg12
(dp1962
F1009
g1
(g18
g3
NtRp1963
(dp1964
g21
I00
sbsF1007
g1
(g18
g3
NtRp1965
(dp1966
g21
I00
sbssbsF34
g1
(g7
g3
NtRp1967
(dp1968
g10
g67
sg12
(dp1969
F1002.3
g1
(g18
g3
NtRp1970
(dp1971
g21
I00
sbsF1003.9
g1
(g18
g3
NtRp1972
(dp1973
g21
I00
sbsF1009.7
g1
(g18
g3
NtRp1974
(dp1975
g21
I00
sbsF1007
g1
(g18
g3
NtRp1976
(dp1977
g21
I00
sbssbsF35
g1
(g7
g3
NtRp1978
(dp1979
g10
g67
sg12
(dp1980
F1008.7
g1
(g18
g3
NtRp1981
(dp1982
g21
I00
sbsF1007
g1
(g18
g3
NtRp1983
(dp1984
g21
I00
sbssbsF36
g1
(g18
g3
NtRp1985
(dp1986
g21
I00
sbsF38
g1
(g18
g3
NtRp1987
(dp1988
g21
I00
sbsF39
g1
(g18
g3
NtRp1989
(dp1990
g21
I01
sbsF40
g1
(g18
g3
NtRp1991
(dp1992
g21
I00
sbsF41
g1
(g18
g3
NtRp1993
(dp1994
g21
I00
sbsF42
g1
(g7
g3
NtRp1995
(dp1996
g10
g67
sg12
(dp1997
F1005.3
g1
(g18
g3
NtRp1998
(dp1999
g21
I01
sbsF1008.4
g1
(g18
g3
NtRp2000
(dp2001
g21
I01
sbsF1007
g1
(g18
g3
NtRp2002
(dp2003
g21
I01
sbssbsF44
g1
(g18
g3
NtRp2004
(dp2005
g21
I00
sbsF46
g1
(g18
g3
NtRp2006
(dp2007
g21
I00
sbsF47
g1
(g18
g3
NtRp2008
(dp2009
g21
I01
sbsF48
g1
(g18
g3
NtRp2010
(dp2011
g21
I00
sbsF49
g1
(g18
g3
NtRp2012
(dp2013
g21
I00
sbsF26
g1
(g18
g3
NtRp2014
(dp2015
g21
I01
sbsF28
g1
(g18
g3
NtRp2016
(dp2017
g21
I01
sbsF31
g1
(g18
g3
NtRp2018
(dp2019
g21
I00
sbssbsF19.699999999999999
g1
(g7
g3
NtRp2020
(dp2021
g10
g67
sg12
(dp2022
F1006.3
g1
(g18
g3
NtRp2023
(dp2024
g21
I00
sbsF1011.4
g1
(g18
g3
NtRp2025
(dp2026
g21
I00
sbsF1011.1
g1
(g18
g3
NtRp2027
(dp2028
g21
I00
sbsF1008.4
g1
(g18
g3
NtRp2029
(dp2030
g21
I00
sbsF1009.7
g1
(g18
g3
NtRp2031
(dp2032
g21
I01
sbsF1007.7
g1
(g7
g3
NtRp2033
(dp2034
g10
g16
sg12
(dp2035
F52
g1
(g18
g3
NtRp2036
(dp2037
g21
I00
sbsF63
g1
(g18
g3
NtRp2038
(dp2039
g21
I00
sbssbsF1010.4
g1
(g18
g3
NtRp2040
(dp2041
g21
I00
sbsF1002.9
g1
(g18
g3
NtRp2042
(dp2043
g21
I00
sbsF1009.4
g1
(g18
g3
NtRp2044
(dp2045
g21
I00
sbsF1006
g1
(g18
g3
NtRp2046
(dp2047
g21
I00
sbsF1008
g1
(g18
g3
NtRp2048
(dp2049
g21
I00
sbsF1009
g1
(g18
g3
NtRp2050
(dp2051
g21
I00
sbsF1010
g1
(g7
g3
NtRp2052
(dp2053
g10
g16
sg12
(dp2054
F65
g1
(g18
g3
NtRp2055
(dp2056
g21
I00
sbsF52
g1
(g18
g3
NtRp2057
(dp2058
g21
I00
sbsF45
g1
(g18
g3
NtRp2059
(dp2060
g21
I00
sbssbsF1005.6
g1
(g18
g3
NtRp2061
(dp2062
g21
I00
sbsF1012.4
g1
(g18
g3
NtRp2063
(dp2064
g21
I00
sbsF1005.3
g1
(g18
g3
NtRp2065
(dp2066
g21
I00
sbsF1004.6
g1
(g18
g3
NtRp2067
(dp2068
g21
I00
sbsF1004.3
g1
(g18
g3
NtRp2069
(dp2070
g21
I01
sbsF1007.3
g1
(g18
g3
NtRp2071
(dp2072
g21
I00
sbsF1002.6
g1
(g18
g3
NtRp2073
(dp2074
g21
I00
sbssbsF21.399999999999999
g1
(g7
g3
NtRp2075
(dp2076
g10
g16
sg12
(dp2077
F67
g1
(g18
g3
NtRp2078
(dp2079
g21
I00
sbsF38
g1
(g18
g3
NtRp2080
(dp2081
g21
I00
sbsF39
g1
(g18
g3
NtRp2082
(dp2083
g21
I00
sbsF40
g1
(g18
g3
NtRp2084
(dp2085
g21
I00
sbsF41
g1
(g18
g3
NtRp2086
(dp2087
g21
I00
sbsF42
g1
(g18
g3
NtRp2088
(dp2089
g21
I00
sbsF44
g1
(g18
g3
NtRp2090
(dp2091
g21
I01
sbsF45
g1
(g18
g3
NtRp2092
(dp2093
g21
I00
sbsF46
g1
(g18
g3
NtRp2094
(dp2095
g21
I00
sbsF47
g1
(g18
g3
NtRp2096
(dp2097
g21
I00
sbsF48
g1
(g18
g3
NtRp2098
(dp2099
g21
I00
sbsF49
g1
(g7
g3
NtRp2100
(dp2101
g10
g67
sg12
(dp2102
F1004.6
g1
(g18
g3
NtRp2103
(dp2104
g21
I00
sbsF1011.1
g1
(g18
g3
NtRp2105
(dp2106
g21
I00
sbsF1010.4
g1
(g18
g3
NtRp2107
(dp2108
g21
I00
sbssbsF50
g1
(g7
g3
NtRp2109
(dp2110
g10
g67
sg12
(dp2111
F1006.3
g1
(g18
g3
NtRp2112
(dp2113
g21
I00
sbsF1009
g1
(g18
g3
NtRp2114
(dp2115
g21
I00
sbssbsF51
g1
(g7
g3
NtRp2116
(dp2117
g10
g67
sg12
(dp2118
F1005.6
g1
(g18
g3
NtRp2119
(dp2120
g21
I00
sbsF1007.7
g1
(g18
g3
NtRp2121
(dp2122
g21
I00
sbssbsF52
g1
(g18
g3
NtRp2123
(dp2124
g21
I01
sbsF57
g1
(g18
g3
NtRp2125
(dp2126
g21
I00
sbsF59
g1
(g18
g3
NtRp2127
(dp2128
g21
I00
sbsF61
g1
(g18
g3
NtRp2129
(dp2130
g21
I00
sbsF62
g1
(g18
g3
NtRp2131
(dp2132
g21
I00
sbssbsF16.800000000000001
g1
(g7
g3
NtRp2133
(dp2134
g10
g67
sg12
(dp2135
F1011.1
g1
(g18
g3
NtRp2136
(dp2137
g21
I00
sbsF1010.4
g1
(g18
g3
NtRp2138
(dp2139
g21
I00
sbsF1010.7
g1
(g18
g3
NtRp2140
(dp2141
g21
I00
sbsF1006.7
g1
(g18
g3
NtRp2142
(dp2143
g21
I00
sbsF1007.7
g1
(g7
g3
NtRp2144
(dp2145
g10
g16
sg12
(dp2146
F56
g1
(g18
g3
NtRp2147
(dp2148
g21
I00
sbsF69
g1
(g18
g3
NtRp2149
(dp2150
g21
I00
sbssbsF1008.4
g1
(g18
g3
NtRp2151
(dp2152
g21
I00
sbsF1009.4
g1
(g18
g3
NtRp2153
(dp2154
g21
I01
sbsF1008.7
g1
(g7
g3
NtRp2155
(dp2156
g10
g16
sg12
(dp2157
F80
g1
(g18
g3
NtRp2158
(dp2159
g21
I00
sbsF60
g1
(g18
g3
NtRp2160
(dp2161
g21
I00
sbsF76
g1
(g18
g3
NtRp2162
(dp2163
g21
I00
sbsF70
g1
(g18
g3
NtRp2164
(dp2165
g21
I00
sbssbsF1006
g1
(g18
g3
NtRp2166
(dp2167
g21
I00
sbsF1007
g1
(g18
g3
NtRp2168
(dp2169
g21
I00
sbsF1008
g1
(g18
g3
NtRp2170
(dp2171
g21
I00
sbsF1009
g1
(g18
g3
NtRp2172
(dp2173
g21
I00
sbsF1010
g1
(g18
g3
NtRp2174
(dp2175
g21
I00
sbsF1005.6
g1
(g18
g3
NtRp2176
(dp2177
g21
I00
sbsF1009.7
g1
(g18
g3
NtRp2178
(dp2179
g21
I00
sbsF1007.3
g1
(g18
g3
NtRp2180
(dp2181
g21
I00
sbssbsF13.300000000000001
g1
(g18
g3
NtRp2182
(dp2183
g21
I00
sbsF21.100000000000001
g1
(g7
g3
NtRp2184
(dp2185
g10
g16
sg12
(dp2186
F64
g1
(g18
g3
NtRp2187
(dp2188
g21
I00
sbsF36
g1
(g18
g3
NtRp2189
(dp2190
g21
I01
sbsF39
g1
(g18
g3
NtRp2191
(dp2192
g21
I00
sbsF40
g1
(g18
g3
NtRp2193
(dp2194
g21
I00
sbsF41
g1
(g18
g3
NtRp2195
(dp2196
g21
I00
sbsF42
g1
(g18
g3
NtRp2197
(dp2198
g21
I00
sbsF43
g1
(g18
g3
NtRp2199
(dp2200
g21
I00
sbsF44
g1
(g18
g3
NtRp2201
(dp2202
g21
I00
sbsF45
g1
(g18
g3
NtRp2203
(dp2204
g21
I00
sbsF47
g1
(g18
g3
NtRp2205
(dp2206
g21
I01
sbsF48
g1
(g18
g3
NtRp2207
(dp2208
g21
I00
sbsF49
g1
(g7
g3
NtRp2209
(dp2210
g10
g67
sg12
(dp2211
F1010
g1
(g18
g3
NtRp2212
(dp2213
g21
I00
sbsF1009.7
g1
(g18
g3
NtRp2214
(dp2215
g21
I00
sbssbsF51
g1
(g18
g3
NtRp2216
(dp2217
g21
I00
sbsF52
g1
(g18
g3
NtRp2218
(dp2219
g21
I00
sbsF53
g1
(g7
g3
NtRp2220
(dp2221
g10
g67
sg12
(dp2222
F1008
g1
(g18
g3
NtRp2223
(dp2224
g21
I00
sbsF1008.4
g1
(g18
g3
NtRp2225
(dp2226
g21
I00
sbsF1007.7
g1
(g18
g3
NtRp2227
(dp2228
g21
I00
sbssbsF54
g1
(g18
g3
NtRp2229
(dp2230
g21
I00
sbsF59
g1
(g18
g3
NtRp2231
(dp2232
g21
I00
sbsF63
g1
(g18
g3
NtRp2233
(dp2234
g21
I00
sbssbsF14.5
g1
(g18
g3
NtRp2235
(dp2236
g21
I00
sbsF16.5
g1
(g7
g3
NtRp2237
(dp2238
g10
g16
sg12
(dp2239
F70
g1
(g18
g3
NtRp2240
(dp2241
g21
I00
sbsF73
g1
(g18
g3
NtRp2242
(dp2243
g21
I00
sbsF74
g1
(g18
g3
NtRp2244
(dp2245
g21
I00
sbsF76
g1
(g18
g3
NtRp2246
(dp2247
g21
I00
sbsF78
g1
(g18
g3
NtRp2248
(dp2249
g21
I00
sbsF79
g1
(g18
g3
NtRp2250
(dp2251
g21
I00
sbsF80
g1
(g18
g3
NtRp2252
(dp2253
g21
I00
sbsF83
g1
(g18
g3
NtRp2254
(dp2255
g21
I00
sbsF57
g1
(g7
g3
NtRp2256
(dp2257
g10
g67
sg12
(dp2258
F1006
g1
(g18
g3
NtRp2259
(dp2260
g21
I00
sbsF1006.7
g1
(g18
g3
NtRp2261
(dp2262
g21
I00
sbssbsF59
g1
(g18
g3
NtRp2263
(dp2264
g21
I00
sbssbsF23.800000000000001
g1
(g7
g3
NtRp2265
(dp2266
g10
g67
sg12
(dp2267
F1008.4
g1
(g18
g3
NtRp2268
(dp2269
g21
I00
sbsF1012.4
g1
(g18
g3
NtRp2270
(dp2271
g21
I00
sbsF1006.7
g1
(g18
g3
NtRp2272
(dp2273
g21
I00
sbsF1009.7
g1
(g18
g3
NtRp2274
(dp2275
g21
I00
sbsF1010.7
g1
(g18
g3
NtRp2276
(dp2277
g21
I00
sbsF1003.9
g1
(g18
g3
NtRp2278
(dp2279
g21
I00
sbsF1009.4
g1
(g18
g3
NtRp2280
(dp2281
g21
I00
sbsF1007.7
g1
(g7
g3
NtRp2282
(dp2283
g10
g16
sg12
(dp2284
F32
g1
(g18
g3
NtRp2285
(dp2286
g21
I00
sbsF43
g1
(g18
g3
NtRp2287
(dp2288
g21
I00
sbsF36
g1
(g18
g3
NtRp2289
(dp2290
g21
I00
sbsF45
g1
(g18
g3
NtRp2291
(dp2292
g21
I00
sbssbsF1006
g1
(g7
g3
NtRp2293
(dp2294
g10
g16
sg12
(dp2295
F42
g1
(g18
g3
NtRp2296
(dp2297
g21
I00
sbsF36
g1
(g18
g3
NtRp2298
(dp2299
g21
I00
sbssbsF1005
g1
(g7
g3
NtRp2300
(dp2301
g10
g16
sg12
(dp2302
F42
g1
(g18
g3
NtRp2303
(dp2304
g21
I00
sbsF45
g1
(g18
g3
NtRp2305
(dp2306
g21
I00
sbssbsF1008
g1
(g18
g3
NtRp2307
(dp2308
g21
I00
sbsF1009
g1
(g18
g3
NtRp2309
(dp2310
g21
I00
sbsF1011.1
g1
(g18
g3
NtRp2311
(dp2312
g21
I00
sbsF1006.3
g1
(g18
g3
NtRp2313
(dp2314
g21
I00
sbsF1008.7
g1
(g18
g3
NtRp2315
(dp2316
g21
I00
sbsF1005.3
g1
(g18
g3
NtRp2317
(dp2318
g21
I00
sbsF1003.6
g1
(g18
g3
NtRp2319
(dp2320
g21
I00
sbssbsF17.899999999999999
g1
(g7
g3
NtRp2321
(dp2322
g10
g16
sg12
(dp2323
F64
g1
(g18
g3
NtRp2324
(dp2325
g21
I00
sbsF65
g1
(g18
g3
NtRp2326
(dp2327
g21
I00
sbsF66
g1
(g18
g3
NtRp2328
(dp2329
g21
I00
sbsF67
g1
(g18
g3
NtRp2330
(dp2331
g21
I00
sbsF69
g1
(g18
g3
NtRp2332
(dp2333
g21
I00
sbsF70
g1
(g18
g3
NtRp2334
(dp2335
g21
I00
sbsF71
g1
(g18
g3
NtRp2336
(dp2337
g21
I00
sbsF72
g1
(g18
g3
NtRp2338
(dp2339
g21
I00
sbsF73
g1
(g18
g3
NtRp2340
(dp2341
g21
I00
sbsF74
g1
(g18
g3
NtRp2342
(dp2343
g21
I00
sbsF75
g1
(g18
g3
NtRp2344
(dp2345
g21
I00
sbsF78
g1
(g18
g3
NtRp2346
(dp2347
g21
I00
sbsF47
g1
(g18
g3
NtRp2348
(dp2349
g21
I00
sbsF48
g1
(g18
g3
NtRp2350
(dp2351
g21
I00
sbsF51
g1
(g18
g3
NtRp2352
(dp2353
g21
I00
sbsF54
g1
(g18
g3
NtRp2354
(dp2355
g21
I00
sbsF55
g1
(g18
g3
NtRp2356
(dp2357
g21
I00
sbsF56
g1
(g18
g3
NtRp2358
(dp2359
g21
I00
sbsF57
g1
(g18
g3
NtRp2360
(dp2361
g21
I01
sbsF58
g1
(g18
g3
NtRp2362
(dp2363
g21
I01
sbsF61
g1
(g18
g3
NtRp2364
(dp2365
g21
I00
sbssbsF24.800000000000001
g1
(g7
g3
NtRp2366
(dp2367
g10
g67
sg12
(dp2368
F1005.3
g1
(g18
g3
NtRp2369
(dp2370
g21
I01
sbsF1003.6
g1
(g18
g3
NtRp2371
(dp2372
g21
I00
sbsF1009.4
g1
(g18
g3
NtRp2373
(dp2374
g21
I00
sbsF1008.7
g1
(g18
g3
NtRp2375
(dp2376
g21
I00
sbsF1007.7
g1
(g7
g3
NtRp2377
(dp2378
g10
g16
sg12
(dp2379
F38
g1
(g18
g3
NtRp2380
(dp2381
g21
I00
sbsF37
g1
(g18
g3
NtRp2382
(dp2383
g21
I00
sbsF30
g1
(g18
g3
NtRp2384
(dp2385
g21
I00
sbssbsF1006.7
g1
(g7
g3
NtRp2386
(dp2387
g10
g16
sg12
(dp2388
F33
g1
(g18
g3
NtRp2389
(dp2390
g21
I00
sbsF46
g1
(g18
g3
NtRp2391
(dp2392
g21
I00
sbssbsF1004.6
g1
(g18
g3
NtRp2393
(dp2394
g21
I00
sbsF1003.9
g1
(g18
g3
NtRp2395
(dp2396
g21
I01
sbsF1005
g1
(g18
g3
NtRp2397
(dp2398
g21
I01
sbsF1006
g1
(g18
g3
NtRp2399
(dp2400
g21
I01
sbsF1007
g1
(g18
g3
NtRp2401
(dp2402
g21
I01
sbsF1008
g1
(g18
g3
NtRp2403
(dp2404
g21
I00
sbsF1009
g1
(g18
g3
NtRp2405
(dp2406
g21
I00
sbsF1005.6
g1
(g18
g3
NtRp2407
(dp2408
g21
I00
sbsF1006.3
g1
(g7
g3
NtRp2409
(dp2410
g10
g16
sg12
(dp2411
F44
g1
(g18
g3
NtRp2412
(dp2413
g21
I01
sbsF45
g1
(g18
g3
NtRp2414
(dp2415
g21
I01
sbsF31
g1
(g18
g3
NtRp2416
(dp2417
g21
I01
sbssbsF1007.3
g1
(g7
g3
NtRp2418
(dp2419
g10
g16
sg12
(dp2420
F33
g1
(g18
g3
NtRp2421
(dp2422
g21
I00
sbsF34
g1
(g18
g3
NtRp2423
(dp2424
g21
I00
sbsF38
g1
(g18
g3
NtRp2425
(dp2426
g21
I00
sbssbsF1002.3
g1
(g18
g3
NtRp2427
(dp2428
g21
I01
sbssbsF23.5
g1
(g7
g3
NtRp2429
(dp2430
g10
g16
sg12
(dp2431
F34
g1
(g18
g3
NtRp2432
(dp2433
g21
I00
sbsF38
g1
(g18
g3
NtRp2434
(dp2435
g21
I00
sbsF39
g1
(g18
g3
NtRp2436
(dp2437
g21
I00
sbsF40
g1
(g18
g3
NtRp2438
(dp2439
g21
I00
sbsF41
g1
(g18
g3
NtRp2440
(dp2441
g21
I00
sbsF44
g1
(g18
g3
NtRp2442
(dp2443
g21
I01
sbsF46
g1
(g18
g3
NtRp2444
(dp2445
g21
I00
sbsF52
g1
(g18
g3
NtRp2446
(dp2447
g21
I00
sbsF29
g1
(g18
g3
NtRp2448
(dp2449
g21
I00
sbssbsF16.199999999999999
g1
(g7
g3
NtRp2450
(dp2451
g10
g16
sg12
(dp2452
F69
g1
(g18
g3
NtRp2453
(dp2454
g21
I00
sbsF70
g1
(g18
g3
NtRp2455
(dp2456
g21
I00
sbsF71
g1
(g18
g3
NtRp2457
(dp2458
g21
I00
sbsF73
g1
(g18
g3
NtRp2459
(dp2460
g21
I00
sbsF74
g1
(g18
g3
NtRp2461
(dp2462
g21
I00
sbsF75
g1
(g18
g3
NtRp2463
(dp2464
g21
I00
sbsF77
g1
(g18
g3
NtRp2465
(dp2466
g21
I00
sbsF78
g1
(g18
g3
NtRp2467
(dp2468
g21
I00
sbsF79
g1
(g18
g3
NtRp2469
(dp2470
g21
I00
sbsF80
g1
(g18
g3
NtRp2471
(dp2472
g21
I00
sbsF81
g1
(g18
g3
NtRp2473
(dp2474
g21
I00
sbsF82
g1
(g18
g3
NtRp2475
(dp2476
g21
I00
sbsF51
g1
(g18
g3
NtRp2477
(dp2478
g21
I01
sbsF84
g1
(g18
g3
NtRp2479
(dp2480
g21
I00
sbsF85
g1
(g18
g3
NtRp2481
(dp2482
g21
I00
sbsF60
g1
(g18
g3
NtRp2483
(dp2484
g21
I01
sbsF61
g1
(g18
g3
NtRp2485
(dp2486
g21
I00
sbssbsF20.199999999999999
g1
(g7
g3
NtRp2487
(dp2488
g10
g67
sg12
(dp2489
F1007.3
g1
(g18
g3
NtRp2490
(dp2491
g21
I00
sbsF1012.4
g1
(g18
g3
NtRp2492
(dp2493
g21
I00
sbsF1008.4
g1
(g18
g3
NtRp2494
(dp2495
g21
I00
sbsF1009.7
g1
(g7
g3
NtRp2496
(dp2497
g10
g16
sg12
(dp2498
F64
g1
(g18
g3
NtRp2499
(dp2500
g21
I00
sbsF50
g1
(g18
g3
NtRp2501
(dp2502
g21
I00
sbsF43
g1
(g18
g3
NtRp2503
(dp2504
g21
I00
sbsF52
g1
(g18
g3
NtRp2505
(dp2506
g21
I00
sbssbsF1007.7
g1
(g18
g3
NtRp2507
(dp2508
g21
I00
sbsF1006.7
g1
(g18
g3
NtRp2509
(dp2510
g21
I00
sbsF1010.4
g1
(g18
g3
NtRp2511
(dp2512
g21
I00
sbsF1002.9
g1
(g18
g3
NtRp2513
(dp2514
g21
I00
sbsF1008.7
g1
(g18
g3
NtRp2515
(dp2516
g21
I00
sbsF1006
g1
(g7
g3
NtRp2517
(dp2518
g10
g16
sg12
(dp2519
F72
g1
(g18
g3
NtRp2520
(dp2521
g21
I00
sbsF56
g1
(g18
g3
NtRp2522
(dp2523
g21
I00
sbsF51
g1
(g18
g3
NtRp2524
(dp2525
g21
I00
sbssbsF1007
g1
(g18
g3
NtRp2526
(dp2527
g21
I00
sbsF1008
g1
(g18
g3
NtRp2528
(dp2529
g21
I00
sbsF1010
g1
(g18
g3
NtRp2530
(dp2531
g21
I01
sbsF1011.1
g1
(g18
g3
NtRp2532
(dp2533
g21
I00
sbsF1011.7
g1
(g18
g3
NtRp2534
(dp2535
g21
I00
sbsF1006.3
g1
(g18
g3
NtRp2536
(dp2537
g21
I00
sbsF1004.3
g1
(g18
g3
NtRp2538
(dp2539
g21
I00
sbssbsF14.4
g1
(g18
g3
NtRp2540
(dp2541
g21
I00
sbsF19.5
g1
(g7
g3
NtRp2542
(dp2543
g10
g16
sg12
(dp2544
F65
g1
(g18
g3
NtRp2545
(dp2546
g21
I00
sbsF66
g1
(g18
g3
NtRp2547
(dp2548
g21
I00
sbsF70
g1
(g18
g3
NtRp2549
(dp2550
g21
I00
sbsF40
g1
(g18
g3
NtRp2551
(dp2552
g21
I00
sbsF44
g1
(g18
g3
NtRp2553
(dp2554
g21
I00
sbsF46
g1
(g18
g3
NtRp2555
(dp2556
g21
I00
sbsF48
g1
(g18
g3
NtRp2557
(dp2558
g21
I01
sbsF51
g1
(g18
g3
NtRp2559
(dp2560
g21
I00
sbsF53
g1
(g18
g3
NtRp2561
(dp2562
g21
I00
sbsF54
g1
(g18
g3
NtRp2563
(dp2564
g21
I01
sbsF56
g1
(g18
g3
NtRp2565
(dp2566
g21
I00
sbsF58
g1
(g18
g3
NtRp2567
(dp2568
g21
I01
sbsF60
g1
(g18
g3
NtRp2569
(dp2570
g21
I00
sbsF62
g1
(g18
g3
NtRp2571
(dp2572
g21
I00
sbssbsF24.300000000000001
g1
(g7
g3
NtRp2573
(dp2574
g10
g16
sg12
(dp2575
F32
g1
(g7
g3
NtRp2576
(dp2577
g10
g67
sg12
(dp2578
F1008
g1
(g18
g3
NtRp2579
(dp2580
g21
I01
sbsF1007.3
g1
(g18
g3
NtRp2581
(dp2582
g21
I01
sbsF1007.7
g1
(g18
g3
NtRp2583
(dp2584
g21
I01
sbssbsF33
g1
(g18
g3
NtRp2585
(dp2586
g21
I00
sbsF34
g1
(g7
g3
NtRp2587
(dp2588
g10
g67
sg12
(dp2589
F1003.9
g1
(g18
g3
NtRp2590
(dp2591
g21
I00
sbsF1002.9
g1
(g18
g3
NtRp2592
(dp2593
g21
I00
sbsF1008.4
g1
(g18
g3
NtRp2594
(dp2595
g21
I00
sbssbsF35
g1
(g18
g3
NtRp2596
(dp2597
g21
I00
sbsF36
g1
(g18
g3
NtRp2598
(dp2599
g21
I00
sbsF38
g1
(g18
g3
NtRp2600
(dp2601
g21
I00
sbsF39
g1
(g18
g3
NtRp2602
(dp2603
g21
I00
sbsF40
g1
(g7
g3
NtRp2604
(dp2605
g10
g67
sg12
(dp2606
F1008
g1
(g18
g3
NtRp2607
(dp2608
g21
I00
sbsF1011.1
g1
(g18
g3
NtRp2609
(dp2610
g21
I00
sbsF1009.7
g1
(g18
g3
NtRp2611
(dp2612
g21
I00
sbssbsF41
g1
(g7
g3
NtRp2613
(dp2614
g10
g67
sg12
(dp2615
F1007.7
g1
(g18
g3
NtRp2616
(dp2617
g21
I00
sbssbsF42
g1
(g18
g3
NtRp2618
(dp2619
g21
I01
sbsF43
g1
(g7
g3
NtRp2620
(dp2621
g10
g67
sg12
(dp2622
F1005.3
g1
(g18
g3
NtRp2623
(dp2624
g21
I00
sbsF1010.7
g1
(g18
g3
NtRp2625
(dp2626
g21
I00
sbssbsF44
g1
(g18
g3
NtRp2627
(dp2628
g21
I00
sbsF46
g1
(g18
g3
NtRp2629
(dp2630
g21
I00
sbsF48
g1
(g18
g3
NtRp2631
(dp2632
g21
I00
sbsF49
g1
(g18
g3
NtRp2633
(dp2634
g21
I00
sbsF28
g1
(g18
g3
NtRp2635
(dp2636
g21
I00
sbsF29
g1
(g18
g3
NtRp2637
(dp2638
g21
I00
sbsF31
g1
(g18
g3
NtRp2639
(dp2640
g21
I00
sbssbsF27.699999999999999
g1
(g7
g3
NtRp2641
(dp2642
g10
g67
sg12
(dp2643
F1005.3
g1
(g7
g3
NtRp2644
(dp2645
g10
g16
sg12
(dp2646
F24
g1
(g18
g3
NtRp2647
(dp2648
g21
I00
sbsF33
g1
(g18
g3
NtRp2649
(dp2650
g21
I00
sbsF26
g1
(g18
g3
NtRp2651
(dp2652
g21
I00
sbsF27
g1
(g18
g3
NtRp2653
(dp2654
g21
I00
sbssbsF1004.6
g1
(g7
g3
NtRp2655
(dp2656
g10
g16
sg12
(dp2657
F25
g1
(g18
g3
NtRp2658
(dp2659
g21
I01
sbsF26
g1
(g18
g3
NtRp2660
(dp2661
g21
I01
sbsF27
g1
(g18
g3
NtRp2662
(dp2663
g21
I01
sbsF29
g1
(g18
g3
NtRp2664
(dp2665
g21
I01
sbsF30
g1
(g18
g3
NtRp2666
(dp2667
g21
I01
sbssbsF1003.9
g1
(g18
g3
NtRp2668
(dp2669
g21
I00
sbsF1001.2
g1
(g18
g3
NtRp2670
(dp2671
g21
I01
sbsF1006.7
g1
(g18
g3
NtRp2672
(dp2673
g21
I00
sbsF1003.6
g1
(g7
g3
NtRp2674
(dp2675
g10
g16
sg12
(dp2676
F25
g1
(g18
g3
NtRp2677
(dp2678
g21
I01
sbsF26
g1
(g18
g3
NtRp2679
(dp2680
g21
I01
sbsF27
g1
(g18
g3
NtRp2681
(dp2682
g21
I01
sbsF28
g1
(g18
g3
NtRp2683
(dp2684
g21
I01
sbsF29
g1
(g18
g3
NtRp2685
(dp2686
g21
I01
sbssbsF1000.9
g1
(g18
g3
NtRp2687
(dp2688
g21
I00
sbsF1005
g1
(g18
g3
NtRp2689
(dp2690
g21
I01
sbsF1006
g1
(g18
g3
NtRp2691
(dp2692
g21
I00
sbsF1007
g1
(g18
g3
NtRp2693
(dp2694
g21
I00
sbsF1005.6
g1
(g18
g3
NtRp2695
(dp2696
g21
I00
sbsF1004.3
g1
(g18
g3
NtRp2697
(dp2698
g21
I01
sbsF1003.3
g1
(g7
g3
NtRp2699
(dp2700
g10
g16
sg12
(dp2701
F28
g1
(g18
g3
NtRp2702
(dp2703
g21
I00
sbsF31
g1
(g18
g3
NtRp2704
(dp2705
g21
I00
sbssbssbsF22.399999999999999
g1
(g7
g3
NtRp2706
(dp2707
g10
g67
sg12
(dp2708
F1007.3
g1
(g7
g3
NtRp2709
(dp2710
g10
g16
sg12
(dp2711
F48
g1
(g18
g3
NtRp2712
(dp2713
g21
I00
sbsF60
g1
(g18
g3
NtRp2714
(dp2715
g21
I00
sbsF47
g1
(g18
g3
NtRp2716
(dp2717
g21
I00
sbssbsF1011.4
g1
(g18
g3
NtRp2718
(dp2719
g21
I00
sbsF1003.9
g1
(g18
g3
NtRp2720
(dp2721
g21
I00
sbsF1008.4
g1
(g18
g3
NtRp2722
(dp2723
g21
I00
sbsF1009.7
g1
(g18
g3
NtRp2724
(dp2725
g21
I00
sbsF1008.7
g1
(g7
g3
NtRp2726
(dp2727
g10
g16
sg12
(dp2728
F40
g1
(g18
g3
NtRp2729
(dp2730
g21
I00
sbsF55
g1
(g18
g3
NtRp2731
(dp2732
g21
I00
sbssbsF1010.7
g1
(g18
g3
NtRp2733
(dp2734
g21
I00
sbsF1004.6
g1
(g18
g3
NtRp2735
(dp2736
g21
I01
sbsF1013.4
g1
(g18
g3
NtRp2737
(dp2738
g21
I00
sbsF1007.7
g1
(g18
g3
NtRp2739
(dp2740
g21
I00
sbsF1011.1
g1
(g18
g3
NtRp2741
(dp2742
g21
I00
sbsF1005
g1
(g18
g3
NtRp2743
(dp2744
g21
I00
sbsF1008
g1
(g7
g3
NtRp2745
(dp2746
g10
g16
sg12
(dp2747
F49
g1
(g18
g3
NtRp2748
(dp2749
g21
I00
sbsF51
g1
(g18
g3
NtRp2750
(dp2751
g21
I00
sbsF30
g1
(g18
g3
NtRp2752
(dp2753
g21
I00
sbsF43
g1
(g18
g3
NtRp2754
(dp2755
g21
I00
sbssbsF1010
g1
(g7
g3
NtRp2756
(dp2757
g10
g16
sg12
(dp2758
F55
g1
(g18
g3
NtRp2759
(dp2760
g21
I00
sbsF47
g1
(g18
g3
NtRp2761
(dp2762
g21
I00
sbssbsF1005.6
g1
(g18
g3
NtRp2763
(dp2764
g21
I01
sbsF1011.7
g1
(g18
g3
NtRp2765
(dp2766
g21
I00
sbsF1006.7
g1
(g18
g3
NtRp2767
(dp2768
g21
I00
sbsF1009.4
g1
(g18
g3
NtRp2769
(dp2770
g21
I00
sbsF1003.3
g1
(g18
g3
NtRp2771
(dp2772
g21
I01
sbsF1010.4
g1
(g18
g3
NtRp2773
(dp2774
g21
I00
sbsF1007
g1
(g7
g3
NtRp2775
(dp2776
g10
g16
sg12
(dp2777
F49
g1
(g18
g3
NtRp2778
(dp2779
g21
I00
sbsF52
g1
(g18
g3
NtRp2780
(dp2781
g21
I00
sbssbssbsF14.1
g1
(g18
g3
NtRp2782
(dp2783
g21
I00
sbsF22.100000000000001
g1
(g7
g3
NtRp2784
(dp2785
g10
g67
sg12
(dp2786
F1007.3
g1
(g7
g3
NtRp2787
(dp2788
g10
g16
sg12
(dp2789
F43
g1
(g18
g3
NtRp2790
(dp2791
g21
I00
sbsF54
g1
(g18
g3
NtRp2792
(dp2793
g21
I00
sbssbsF1011.4
g1
(g18
g3
NtRp2794
(dp2795
g21
I00
sbsF1005.6
g1
(g18
g3
NtRp2796
(dp2797
g21
I01
sbsF1002.9
g1
(g18
g3
NtRp2798
(dp2799
g21
I01
sbsF1008.7
g1
(g18
g3
NtRp2800
(dp2801
g21
I00
sbsF1006.7
g1
(g18
g3
NtRp2802
(dp2803
g21
I00
sbsF1010.7
g1
(g18
g3
NtRp2804
(dp2805
g21
I00
sbsF1011.1
g1
(g18
g3
NtRp2806
(dp2807
g21
I00
sbsF1013.4
g1
(g18
g3
NtRp2808
(dp2809
g21
I00
sbsF1007.7
g1
(g18
g3
NtRp2810
(dp2811
g21
I00
sbsF1005
g1
(g18
g3
NtRp2812
(dp2813
g21
I00
sbsF1008
g1
(g18
g3
NtRp2814
(dp2815
g21
I00
sbsF1010
g1
(g7
g3
NtRp2816
(dp2817
g10
g16
sg12
(dp2818
F58
g1
(g18
g3
NtRp2819
(dp2820
g21
I00
sbsF59
g1
(g18
g3
NtRp2821
(dp2822
g21
I00
sbssbsF1012.1
g1
(g18
g3
NtRp2823
(dp2824
g21
I00
sbsF1003.9
g1
(g18
g3
NtRp2825
(dp2826
g21
I00
sbsF1005.3
g1
(g18
g3
NtRp2827
(dp2828
g21
I01
sbsF1004.3
g1
(g18
g3
NtRp2829
(dp2830
g21
I01
sbsF1007
g1
(g18
g3
NtRp2831
(dp2832
g21
I01
sbssbsF12.6
g1
(g18
g3
NtRp2833
(dp2834
g21
I00
sbsF13.699999999999999
g1
(g18
g3
NtRp2835
(dp2836
g21
I00
sbsF23.100000000000001
g1
(g7
g3
NtRp2837
(dp2838
g10
g67
sg12
(dp2839
F1012.8
g1
(g18
g3
NtRp2840
(dp2841
g21
I00
sbsF1009.4
g1
(g18
g3
NtRp2842
(dp2843
g21
I00
sbsF1008.4
g1
(g18
g3
NtRp2844
(dp2845
g21
I00
sbsF1011.7
g1
(g18
g3
NtRp2846
(dp2847
g21
I00
sbsF1006.7
g1
(g18
g3
NtRp2848
(dp2849
g21
I00
sbsF1008.7
g1
(g18
g3
NtRp2850
(dp2851
g21
I00
sbsF1010.4
g1
(g18
g3
NtRp2852
(dp2853
g21
I00
sbsF1003.9
g1
(g18
g3
NtRp2854
(dp2855
g21
I00
sbsF1007.7
g1
(g7
g3
NtRp2856
(dp2857
g10
g16
sg12
(dp2858
F40
g1
(g18
g3
NtRp2859
(dp2860
g21
I00
sbsF45
g1
(g18
g3
NtRp2861
(dp2862
g21
I00
sbsF47
g1
(g18
g3
NtRp2863
(dp2864
g21
I00
sbssbsF1005
g1
(g18
g3
NtRp2865
(dp2866
g21
I01
sbsF1008
g1
(g7
g3
NtRp2867
(dp2868
g10
g16
sg12
(dp2869
F48
g1
(g18
g3
NtRp2870
(dp2871
g21
I00
sbsF41
g1
(g18
g3
NtRp2872
(dp2873
g21
I00
sbsF31
g1
(g18
g3
NtRp2874
(dp2875
g21
I00
sbsF49
g1
(g18
g3
NtRp2876
(dp2877
g21
I00
sbssbsF1009
g1
(g18
g3
NtRp2878
(dp2879
g21
I00
sbsF1010
g1
(g7
g3
NtRp2880
(dp2881
g10
g16
sg12
(dp2882
F51
g1
(g18
g3
NtRp2883
(dp2884
g21
I00
sbsF43
g1
(g18
g3
NtRp2885
(dp2886
g21
I00
sbssbsF1011.1
g1
(g18
g3
NtRp2887
(dp2888
g21
I00
sbsF1007.3
g1
(g18
g3
NtRp2889
(dp2890
g21
I00
sbsF1006.3
g1
(g18
g3
NtRp2891
(dp2892
g21
I00
sbsF1007
g1
(g18
g3
NtRp2893
(dp2894
g21
I00
sbsF1012.1
g1
(g18
g3
NtRp2895
(dp2896
g21
I00
sbsF1003.6
g1
(g18
g3
NtRp2897
(dp2898
g21
I00
sbssbsF13.6
g1
(g18
g3
NtRp2899
(dp2900
g21
I00
sbsF24.5
g1
(g7
g3
NtRp2901
(dp2902
g10
g67
sg12
(dp2903
F1007.3
g1
(g18
g3
NtRp2904
(dp2905
g21
I00
sbsF1008.4
g1
(g18
g3
NtRp2906
(dp2907
g21
I00
sbsF1006.7
g1
(g7
g3
NtRp2908
(dp2909
g10
g16
sg12
(dp2910
F32
g1
(g18
g3
NtRp2911
(dp2912
g21
I00
sbsF44
g1
(g18
g3
NtRp2913
(dp2914
g21
I00
sbsF47
g1
(g18
g3
NtRp2915
(dp2916
g21
I00
sbssbsF1009.7
g1
(g18
g3
NtRp2917
(dp2918
g21
I00
sbsF1003.9
g1
(g18
g3
NtRp2919
(dp2920
g21
I00
sbsF1009.4
g1
(g18
g3
NtRp2921
(dp2922
g21
I00
sbsF1005
g1
(g18
g3
NtRp2923
(dp2924
g21
I00
sbsF1007
g1
(g18
g3
NtRp2925
(dp2926
g21
I01
sbsF1008
g1
(g18
g3
NtRp2927
(dp2928
g21
I00
sbsF1010
g1
(g18
g3
NtRp2929
(dp2930
g21
I00
sbsF1002.6
g1
(g18
g3
NtRp2931
(dp2932
g21
I01
sbsF1006.3
g1
(g18
g3
NtRp2933
(dp2934
g21
I00
sbsF1005.3
g1
(g18
g3
NtRp2935
(dp2936
g21
I00
sbsF1004.3
g1
(g18
g3
NtRp2937
(dp2938
g21
I00
sbssbsF13.800000000000001
g1
(g18
g3
NtRp2939
(dp2940
g21
I00
sbsF29.199999999999999
g1
(g7
g3
NtRp2941
(dp2942
g10
g67
sg12
(dp2943
F1001.2
g1
(g18
g3
NtRp2944
(dp2945
g21
I01
sbsF1004.6
g1
(g18
g3
NtRp2946
(dp2947
g21
I01
sbsF1001.9
g1
(g7
g3
NtRp2948
(dp2949
g10
g16
sg12
(dp2950
F23
g1
(g18
g3
NtRp2951
(dp2952
g21
I00
sbssbsF1005
g1
(g18
g3
NtRp2953
(dp2954
g21
I01
sbsF1001.6
g1
(g18
g3
NtRp2955
(dp2956
g21
I01
sbsF1002.3
g1
(g18
g3
NtRp2957
(dp2958
g21
I00
sbssbsF21.199999999999999
g1
(g7
g3
NtRp2959
(dp2960
g10
g67
sg12
(dp2961
F1006.3
g1
(g7
g3
NtRp2962
(dp2963
g10
g16
sg12
(dp2964
F50
g1
(g18
g3
NtRp2965
(dp2966
g21
I00
sbsF53
g1
(g18
g3
NtRp2967
(dp2968
g21
I00
sbssbsF1008.4
g1
(g18
g3
NtRp2969
(dp2970
g21
I00
sbsF1010.4
g1
(g18
g3
NtRp2971
(dp2972
g21
I00
sbsF1008.7
g1
(g18
g3
NtRp2973
(dp2974
g21
I00
sbsF1010.7
g1
(g18
g3
NtRp2975
(dp2976
g21
I00
sbsF1009.7
g1
(g18
g3
NtRp2977
(dp2978
g21
I01
sbsF1009.4
g1
(g18
g3
NtRp2979
(dp2980
g21
I00
sbsF1013.4
g1
(g18
g3
NtRp2981
(dp2982
g21
I00
sbsF1007.7
g1
(g18
g3
NtRp2983
(dp2984
g21
I00
sbsF1006
g1
(g18
g3
NtRp2985
(dp2986
g21
I00
sbsF1005
g1
(g18
g3
NtRp2987
(dp2988
g21
I00
sbsF1008
g1
(g18
g3
NtRp2989
(dp2990
g21
I01
sbsF1009
g1
(g18
g3
NtRp2991
(dp2992
g21
I01
sbsF1003.9
g1
(g18
g3
NtRp2993
(dp2994
g21
I00
sbsF1006.7
g1
(g18
g3
NtRp2995
(dp2996
g21
I00
sbsF1004.3
g1
(g18
g3
NtRp2997
(dp2998
g21
I01
sbsF1007.3
g1
(g18
g3
NtRp2999
(dp3000
g21
I00
sbsF1011.7
g1
(g18
g3
NtRp3001
(dp3002
g21
I00
sbssbsF22.899999999999999
g1
(g7
g3
NtRp3003
(dp3004
g10
g16
sg12
(dp3005
F32
g1
(g18
g3
NtRp3006
(dp3007
g21
I00
sbsF34
g1
(g18
g3
NtRp3008
(dp3009
g21
I00
sbsF35
g1
(g18
g3
NtRp3010
(dp3011
g21
I00
sbsF36
g1
(g18
g3
NtRp3012
(dp3013
g21
I00
sbsF37
g1
(g18
g3
NtRp3014
(dp3015
g21
I00
sbsF38
g1
(g18
g3
NtRp3016
(dp3017
g21
I00
sbsF40
g1
(g18
g3
NtRp3018
(dp3019
g21
I00
sbsF41
g1
(g7
g3
NtRp3020
(dp3021
g10
g67
sg12
(dp3022
F1008
g1
(g18
g3
NtRp3023
(dp3024
g21
I00
sbsF1010
g1
(g18
g3
NtRp3025
(dp3026
g21
I00
sbsF1007.7
g1
(g18
g3
NtRp3027
(dp3028
g21
I00
sbsF1010.7
g1
(g18
g3
NtRp3029
(dp3030
g21
I00
sbssbsF43
g1
(g7
g3
NtRp3031
(dp3032
g10
g67
sg12
(dp3033
F1008
g1
(g18
g3
NtRp3034
(dp3035
g21
I00
sbsF1009
g1
(g18
g3
NtRp3036
(dp3037
g21
I00
sbsF1010.4
g1
(g18
g3
NtRp3038
(dp3039
g21
I00
sbsF1007
g1
(g18
g3
NtRp3040
(dp3041
g21
I00
sbssbsF44
g1
(g7
g3
NtRp3042
(dp3043
g10
g67
sg12
(dp3044
F1003.3
g1
(g18
g3
NtRp3045
(dp3046
g21
I00
sbsF1010
g1
(g18
g3
NtRp3047
(dp3048
g21
I00
sbsF1009.4
g1
(g18
g3
NtRp3049
(dp3050
g21
I00
sbssbsF45
g1
(g7
g3
NtRp3051
(dp3052
g10
g67
sg12
(dp3053
F1005.3
g1
(g18
g3
NtRp3054
(dp3055
g21
I00
sbsF1006.7
g1
(g18
g3
NtRp3056
(dp3057
g21
I00
sbssbsF46
g1
(g18
g3
NtRp3058
(dp3059
g21
I00
sbsF47
g1
(g18
g3
NtRp3060
(dp3061
g21
I00
sbsF49
g1
(g18
g3
NtRp3062
(dp3063
g21
I00
sbsF52
g1
(g18
g3
NtRp3064
(dp3065
g21
I00
sbsF53
g1
(g18
g3
NtRp3066
(dp3067
g21
I00
sbssbsF28.100000000000001
g1
(g7
g3
NtRp3068
(dp3069
g10
g16
sg12
(dp3070
F32
g1
(g18
g3
NtRp3071
(dp3072
g21
I00
sbsF34
g1
(g18
g3
NtRp3073
(dp3074
g21
I00
sbsF35
g1
(g18
g3
NtRp3075
(dp3076
g21
I00
sbsF36
g1
(g18
g3
NtRp3077
(dp3078
g21
I00
sbsF19
g1
(g18
g3
NtRp3079
(dp3080
g21
I01
sbsF20
g1
(g18
g3
NtRp3081
(dp3082
g21
I01
sbsF21
g1
(g7
g3
NtRp3083
(dp3084
g10
g67
sg12
(dp3085
F1004.3
g1
(g18
g3
NtRp3086
(dp3087
g21
I00
sbsF1006.3
g1
(g18
g3
NtRp3088
(dp3089
g21
I00
sbssbsF22
g1
(g7
g3
NtRp3090
(dp3091
g10
g67
sg12
(dp3092
F1004.6
g1
(g18
g3
NtRp3093
(dp3094
g21
I00
sbsF1006.7
g1
(g18
g3
NtRp3095
(dp3096
g21
I00
sbssbsF24
g1
(g18
g3
NtRp3097
(dp3098
g21
I01
sbsF27
g1
(g18
g3
NtRp3099
(dp3100
g21
I01
sbsF28
g1
(g18
g3
NtRp3101
(dp3102
g21
I01
sbsF29
g1
(g7
g3
NtRp3103
(dp3104
g10
g67
sg12
(dp3105
F1002.3
g1
(g18
g3
NtRp3106
(dp3107
g21
I01
sbsF1001.9
g1
(g18
g3
NtRp3108
(dp3109
g21
I01
sbsF1001.2
g1
(g18
g3
NtRp3110
(dp3111
g21
I01
sbssbsF30
g1
(g7
g3
NtRp3112
(dp3113
g10
g67
sg12
(dp3114
F1005.3
g1
(g18
g3
NtRp3115
(dp3116
g21
I00
sbsF1004.6
g1
(g18
g3
NtRp3117
(dp3118
g21
I00
sbsF1004.3
g1
(g18
g3
NtRp3119
(dp3120
g21
I00
sbssbssbsF29.800000000000001
g1
(g7
g3
NtRp3121
(dp3122
g10
g67
sg12
(dp3123
F1002.3
g1
(g18
g3
NtRp3124
(dp3125
g21
I01
sbsF1001.6
g1
(g18
g3
NtRp3126
(dp3127
g21
I01
sbsF1001.9
g1
(g18
g3
NtRp3128
(dp3129
g21
I01
sbsF1002.9
g1
(g18
g3
NtRp3130
(dp3131
g21
I00
sbssbsF20.300000000000001
g1
(g7
g3
NtRp3132
(dp3133
g10
g67
sg12
(dp3134
F1007.3
g1
(g18
g3
NtRp3135
(dp3136
g21
I00
sbsF1009.4
g1
(g18
g3
NtRp3137
(dp3138
g21
I00
sbsF1010.4
g1
(g18
g3
NtRp3139
(dp3140
g21
I00
sbsF1009.7
g1
(g18
g3
NtRp3141
(dp3142
g21
I01
sbsF1007.7
g1
(g7
g3
NtRp3143
(dp3144
g10
g16
sg12
(dp3145
F56
g1
(g18
g3
NtRp3146
(dp3147
g21
I00
sbsF57
g1
(g18
g3
NtRp3148
(dp3149
g21
I00
sbsF64
g1
(g18
g3
NtRp3150
(dp3151
g21
I00
sbsF55
g1
(g18
g3
NtRp3152
(dp3153
g21
I00
sbssbsF1011.7
g1
(g18
g3
NtRp3154
(dp3155
g21
I00
sbsF1011.1
g1
(g18
g3
NtRp3156
(dp3157
g21
I00
sbsF1012.4
g1
(g18
g3
NtRp3158
(dp3159
g21
I00
sbsF1008.7
g1
(g18
g3
NtRp3160
(dp3161
g21
I00
sbsF1006
g1
(g18
g3
NtRp3162
(dp3163
g21
I00
sbsF1012.1
g1
(g18
g3
NtRp3164
(dp3165
g21
I00
sbsF1009
g1
(g7
g3
NtRp3166
(dp3167
g10
g16
sg12
(dp3168
F40
g1
(g18
g3
NtRp3169
(dp3170
g21
I00
sbsF64
g1
(g18
g3
NtRp3171
(dp3172
g21
I00
sbssbsF1010
g1
(g18
g3
NtRp3173
(dp3174
g21
I00
sbsF1005.6
g1
(g18
g3
NtRp3175
(dp3176
g21
I00
sbsF1006.3
g1
(g7
g3
NtRp3177
(dp3178
g10
g16
sg12
(dp3179
F72
g1
(g18
g3
NtRp3180
(dp3181
g21
I00
sbsF56
g1
(g18
g3
NtRp3182
(dp3183
g21
I00
sbsF50
g1
(g18
g3
NtRp3184
(dp3185
g21
I00
sbsF43
g1
(g18
g3
NtRp3186
(dp3187
g21
I00
sbsF57
g1
(g18
g3
NtRp3188
(dp3189
g21
I00
sbssbsF1003.3
g1
(g18
g3
NtRp3190
(dp3191
g21
I00
sbsF1004.3
g1
(g18
g3
NtRp3192
(dp3193
g21
I00
sbssbsF14.9
g1
(g18
g3
NtRp3194
(dp3195
g21
I00
sbsF23.600000000000001
g1
(g7
g3
NtRp3196
(dp3197
g10
g16
sg12
(dp3198
F33
g1
(g18
g3
NtRp3199
(dp3200
g21
I00
sbsF34
g1
(g18
g3
NtRp3201
(dp3202
g21
I00
sbsF35
g1
(g18
g3
NtRp3203
(dp3204
g21
I00
sbsF36
g1
(g18
g3
NtRp3205
(dp3206
g21
I00
sbsF37
g1
(g18
g3
NtRp3207
(dp3208
g21
I00
sbsF38
g1
(g7
g3
NtRp3209
(dp3210
g10
g67
sg12
(dp3211
F1007.3
g1
(g18
g3
NtRp3212
(dp3213
g21
I00
sbsF1006
g1
(g18
g3
NtRp3214
(dp3215
g21
I00
sbsF1008.7
g1
(g18
g3
NtRp3216
(dp3217
g21
I00
sbssbsF39
g1
(g18
g3
NtRp3218
(dp3219
g21
I00
sbsF40
g1
(g18
g3
NtRp3220
(dp3221
g21
I00
sbsF43
g1
(g7
g3
NtRp3222
(dp3223
g10
g67
sg12
(dp3224
F1006.3
g1
(g18
g3
NtRp3225
(dp3226
g21
I00
sbsF1005
g1
(g18
g3
NtRp3227
(dp3228
g21
I00
sbssbsF45
g1
(g7
g3
NtRp3229
(dp3230
g10
g67
sg12
(dp3231
F1007.3
g1
(g18
g3
NtRp3232
(dp3233
g21
I00
sbsF1008.4
g1
(g18
g3
NtRp3234
(dp3235
g21
I00
sbsF1007
g1
(g18
g3
NtRp3236
(dp3237
g21
I00
sbssbsF46
g1
(g7
g3
NtRp3238
(dp3239
g10
g67
sg12
(dp3240
F1008
g1
(g18
g3
NtRp3241
(dp3242
g21
I00
sbsF1009
g1
(g18
g3
NtRp3243
(dp3244
g21
I00
sbssbsF47
g1
(g18
g3
NtRp3245
(dp3246
g21
I00
sbsF49
g1
(g7
g3
NtRp3247
(dp3248
g10
g67
sg12
(dp3249
F1010
g1
(g18
g3
NtRp3250
(dp3251
g21
I00
sbsF1008.7
g1
(g18
g3
NtRp3252
(dp3253
g21
I00
sbssbsF50
g1
(g18
g3
NtRp3254
(dp3255
g21
I00
sbsF51
g1
(g18
g3
NtRp3256
(dp3257
g21
I00
sbssbsF25.699999999999999
g1
(g7
g3
NtRp3258
(dp3259
g10
g67
sg12
(dp3260
F1004.3
g1
(g18
g3
NtRp3261
(dp3262
g21
I01
sbsF1001.2
g1
(g18
g3
NtRp3263
(dp3264
g21
I01
sbsF1007.7
g1
(g18
g3
NtRp3265
(dp3266
g21
I00
sbsF1006.7
g1
(g18
g3
NtRp3267
(dp3268
g21
I01
sbsF1004.6
g1
(g18
g3
NtRp3269
(dp3270
g21
I01
sbsF1002.9
g1
(g18
g3
NtRp3271
(dp3272
g21
I00
sbsF1008.7
g1
(g18
g3
NtRp3273
(dp3274
g21
I00
sbsF1006
g1
(g7
g3
NtRp3275
(dp3276
g10
g16
sg12
(dp3277
F32
g1
(g18
g3
NtRp3278
(dp3279
g21
I01
sbsF24
g1
(g18
g3
NtRp3280
(dp3281
g21
I01
sbsF31
g1
(g18
g3
NtRp3282
(dp3283
g21
I01
sbssbsF1005
g1
(g7
g3
NtRp3284
(dp3285
g10
g16
sg12
(dp3286
F32
g1
(g18
g3
NtRp3287
(dp3288
g21
I00
sbsF40
g1
(g18
g3
NtRp3289
(dp3290
g21
I00
sbssbsF1008
g1
(g18
g3
NtRp3291
(dp3292
g21
I00
sbsF1005.6
g1
(g18
g3
NtRp3293
(dp3294
g21
I01
sbsF1006.3
g1
(g7
g3
NtRp3295
(dp3296
g10
g16
sg12
(dp3297
F38
g1
(g18
g3
NtRp3298
(dp3299
g21
I00
sbsF22
g1
(g18
g3
NtRp3300
(dp3301
g21
I00
sbssbsF1005.3
g1
(g18
g3
NtRp3302
(dp3303
g21
I00
sbsF1007
g1
(g7
g3
NtRp3304
(dp3305
g10
g16
sg12
(dp3306
F36
g1
(g18
g3
NtRp3307
(dp3308
g21
I00
sbssbssbsF16.300000000000001
g1
(g7
g3
NtRp3309
(dp3310
g10
g67
sg12
(dp3311
F1012.8
g1
(g18
g3
NtRp3312
(dp3313
g21
I00
sbsF1009.7
g1
(g7
g3
NtRp3314
(dp3315
g10
g16
sg12
(dp3316
F74
g1
(g18
g3
NtRp3317
(dp3318
g21
I00
sbsF51
g1
(g18
g3
NtRp3319
(dp3320
g21
I00
sbssbsF1007.7
g1
(g18
g3
NtRp3321
(dp3322
g21
I00
sbsF1011.7
g1
(g18
g3
NtRp3323
(dp3324
g21
I00
sbsF1011.1
g1
(g18
g3
NtRp3325
(dp3326
g21
I00
sbsF1008.4
g1
(g18
g3
NtRp3327
(dp3328
g21
I00
sbsF1006.7
g1
(g18
g3
NtRp3329
(dp3330
g21
I00
sbsF1006
g1
(g18
g3
NtRp3331
(dp3332
g21
I00
sbsF1005
g1
(g18
g3
NtRp3333
(dp3334
g21
I00
sbsF1008
g1
(g18
g3
NtRp3335
(dp3336
g21
I00
sbsF1010
g1
(g7
g3
NtRp3337
(dp3338
g10
g16
sg12
(dp3339
F81
g1
(g18
g3
NtRp3340
(dp3341
g21
I00
sbsF52
g1
(g18
g3
NtRp3342
(dp3343
g21
I00
sbssbsF1005.6
g1
(g7
g3
NtRp3344
(dp3345
g10
g16
sg12
(dp3346
F80
g1
(g18
g3
NtRp3347
(dp3348
g21
I00
sbsF57
g1
(g18
g3
NtRp3349
(dp3350
g21
I00
sbsF79
g1
(g18
g3
NtRp3351
(dp3352
g21
I00
sbssbsF1006.3
g1
(g18
g3
NtRp3353
(dp3354
g21
I00
sbsF1008.7
g1
(g18
g3
NtRp3355
(dp3356
g21
I00
sbsF1005.3
g1
(g18
g3
NtRp3357
(dp3358
g21
I00
sbsF1007.3
g1
(g18
g3
NtRp3359
(dp3360
g21
I00
sbsF1007
g1
(g18
g3
NtRp3361
(dp3362
g21
I00
sbssbsF21.600000000000001
g1
(g7
g3
NtRp3363
(dp3364
g10
g16
sg12
(dp3365
F34
g1
(g18
g3
NtRp3366
(dp3367
g21
I00
sbsF35
g1
(g18
g3
NtRp3368
(dp3369
g21
I00
sbsF37
g1
(g18
g3
NtRp3370
(dp3371
g21
I01
sbsF38
g1
(g18
g3
NtRp3372
(dp3373
g21
I00
sbsF39
g1
(g18
g3
NtRp3374
(dp3375
g21
I00
sbsF42
g1
(g18
g3
NtRp3376
(dp3377
g21
I00
sbsF44
g1
(g18
g3
NtRp3378
(dp3379
g21
I01
sbsF47
g1
(g7
g3
NtRp3380
(dp3381
g10
g67
sg12
(dp3382
F1008
g1
(g18
g3
NtRp3383
(dp3384
g21
I00
sbsF1009.4
g1
(g18
g3
NtRp3385
(dp3386
g21
I00
sbssbsF50
g1
(g18
g3
NtRp3387
(dp3388
g21
I00
sbsF51
g1
(g7
g3
NtRp3389
(dp3390
g10
g67
sg12
(dp3391
F1008
g1
(g18
g3
NtRp3392
(dp3393
g21
I01
sbsF1004.3
g1
(g18
g3
NtRp3394
(dp3395
g21
I01
sbsF1009.7
g1
(g18
g3
NtRp3396
(dp3397
g21
I01
sbsF1009
g1
(g18
g3
NtRp3398
(dp3399
g21
I01
sbssbsF52
g1
(g18
g3
NtRp3400
(dp3401
g21
I00
sbsF53
g1
(g7
g3
NtRp3402
(dp3403
g10
g67
sg12
(dp3404
F1008
g1
(g18
g3
NtRp3405
(dp3406
g21
I00
sbsF1007.3
g1
(g18
g3
NtRp3407
(dp3408
g21
I00
sbssbsF54
g1
(g18
g3
NtRp3409
(dp3410
g21
I01
sbsF55
g1
(g18
g3
NtRp3411
(dp3412
g21
I00
sbsF57
g1
(g18
g3
NtRp3413
(dp3414
g21
I00
sbsF58
g1
(g18
g3
NtRp3415
(dp3416
g21
I00
sbsF59
g1
(g18
g3
NtRp3417
(dp3418
g21
I01
sbsF61
g1
(g18
g3
NtRp3419
(dp3420
g21
I00
sbssbsF29.699999999999999
g1
(g7
g3
NtRp3421
(dp3422
g10
g67
sg12
(dp3423
F1005.3
g1
(g18
g3
NtRp3424
(dp3425
g21
I00
sbsF1003.6
g1
(g18
g3
NtRp3426
(dp3427
g21
I00
sbsF1001.9
g1
(g18
g3
NtRp3428
(dp3429
g21
I01
sbsF1002.6
g1
(g18
g3
NtRp3430
(dp3431
g21
I01
sbsF1003.9
g1
(g18
g3
NtRp3432
(dp3433
g21
I00
sbssbsF26.600000000000001
g1
(g7
g3
NtRp3434
(dp3435
g10
g67
sg12
(dp3436
F1007.3
g1
(g18
g3
NtRp3437
(dp3438
g21
I00
sbsF1000.6
g1
(g18
g3
NtRp3439
(dp3440
g21
I01
sbsF1003.9
g1
(g18
g3
NtRp3441
(dp3442
g21
I01
sbsF1001.2
g1
(g18
g3
NtRp3443
(dp3444
g21
I01
sbsF1003.6
g1
(g18
g3
NtRp3445
(dp3446
g21
I01
sbsF1001.9
g1
(g18
g3
NtRp3447
(dp3448
g21
I01
sbsF1005
g1
(g18
g3
NtRp3449
(dp3450
g21
I01
sbsF1007
g1
(g18
g3
NtRp3451
(dp3452
g21
I00
sbsF1004.6
g1
(g7
g3
NtRp3453
(dp3454
g10
g16
sg12
(dp3455
F27
g1
(g18
g3
NtRp3456
(dp3457
g21
I00
sbsF39
g1
(g18
g3
NtRp3458
(dp3459
g21
I00
sbssbsF1005.6
g1
(g7
g3
NtRp3460
(dp3461
g10
g16
sg12
(dp3462
F24
g1
(g18
g3
NtRp3463
(dp3464
g21
I00
sbsF34
g1
(g18
g3
NtRp3465
(dp3466
g21
I00
sbsF36
g1
(g18
g3
NtRp3467
(dp3468
g21
I00
sbssbsF1002.9
g1
(g18
g3
NtRp3469
(dp3470
g21
I00
sbsF1004.3
g1
(g7
g3
NtRp3471
(dp3472
g10
g16
sg12
(dp3473
F26
g1
(g18
g3
NtRp3474
(dp3475
g21
I00
sbsF29
g1
(g18
g3
NtRp3476
(dp3477
g21
I00
sbssbsF1003.3
g1
(g18
g3
NtRp3478
(dp3479
g21
I00
sbsF1006.3
g1
(g18
g3
NtRp3480
(dp3481
g21
I00
sbsF1001.6
g1
(g18
g3
NtRp3482
(dp3483
g21
I01
sbsF1002.6
g1
(g18
g3
NtRp3484
(dp3485
g21
I00
sbsF1002.3
g1
(g18
g3
NtRp3486
(dp3487
g21
I00
sbssbsF28.300000000000001
g1
(g7
g3
NtRp3488
(dp3489
g10
g16
sg12
(dp3490
F34
g1
(g18
g3
NtRp3491
(dp3492
g21
I00
sbsF18
g1
(g18
g3
NtRp3493
(dp3494
g21
I01
sbsF19
g1
(g18
g3
NtRp3495
(dp3496
g21
I01
sbsF20
g1
(g7
g3
NtRp3497
(dp3498
g10
g67
sg12
(dp3499
F1006.3
g1
(g18
g3
NtRp3500
(dp3501
g21
I01
sbsF1004.6
g1
(g18
g3
NtRp3502
(dp3503
g21
I01
sbssbsF21
g1
(g7
g3
NtRp3504
(dp3505
g10
g67
sg12
(dp3506
F1004.3
g1
(g18
g3
NtRp3507
(dp3508
g21
I00
sbsF1005
g1
(g18
g3
NtRp3509
(dp3510
g21
I00
sbssbsF22
g1
(g7
g3
NtRp3511
(dp3512
g10
g67
sg12
(dp3513
F1004.6
g1
(g18
g3
NtRp3514
(dp3515
g21
I00
sbsF1005
g1
(g18
g3
NtRp3516
(dp3517
g21
I00
sbssbsF23
g1
(g7
g3
NtRp3518
(dp3519
g10
g67
sg12
(dp3520
F1006.3
g1
(g18
g3
NtRp3521
(dp3522
g21
I00
sbsF1005
g1
(g18
g3
NtRp3523
(dp3524
g21
I00
sbssbsF24
g1
(g18
g3
NtRp3525
(dp3526
g21
I01
sbsF26
g1
(g7
g3
NtRp3527
(dp3528
g10
g67
sg12
(dp3529
F1005.3
g1
(g18
g3
NtRp3530
(dp3531
g21
I01
sbsF1002.9
g1
(g18
g3
NtRp3532
(dp3533
g21
I01
sbsF1001.9
g1
(g18
g3
NtRp3534
(dp3535
g21
I01
sbssbsF27
g1
(g18
g3
NtRp3536
(dp3537
g21
I01
sbsF28
g1
(g7
g3
NtRp3538
(dp3539
g10
g67
sg12
(dp3540
F1004.3
g1
(g18
g3
NtRp3541
(dp3542
g21
I01
sbsF1003.6
g1
(g18
g3
NtRp3543
(dp3544
g21
I01
sbsF1003.9
g1
(g18
g3
NtRp3545
(dp3546
g21
I01
sbssbsF29
g1
(g7
g3
NtRp3547
(dp3548
g10
g67
sg12
(dp3549
F1003.6
g1
(g18
g3
NtRp3550
(dp3551
g21
I00
sbsF1001.9
g1
(g18
g3
NtRp3552
(dp3553
g21
I00
sbsF1006
g1
(g18
g3
NtRp3554
(dp3555
g21
I00
sbssbsF30
g1
(g18
g3
NtRp3556
(dp3557
g21
I00
sbssbsF18.800000000000001
g1
(g7
g3
NtRp3558
(dp3559
g10
g16
sg12
(dp3560
F64
g1
(g18
g3
NtRp3561
(dp3562
g21
I00
sbsF65
g1
(g18
g3
NtRp3563
(dp3564
g21
I00
sbsF66
g1
(g18
g3
NtRp3565
(dp3566
g21
I00
sbsF67
g1
(g18
g3
NtRp3567
(dp3568
g21
I00
sbsF68
g1
(g18
g3
NtRp3569
(dp3570
g21
I00
sbsF69
g1
(g18
g3
NtRp3571
(dp3572
g21
I00
sbsF71
g1
(g18
g3
NtRp3573
(dp3574
g21
I00
sbsF72
g1
(g18
g3
NtRp3575
(dp3576
g21
I00
sbsF74
g1
(g18
g3
NtRp3577
(dp3578
g21
I00
sbsF44
g1
(g18
g3
NtRp3579
(dp3580
g21
I00
sbsF45
g1
(g18
g3
NtRp3581
(dp3582
g21
I00
sbsF47
g1
(g18
g3
NtRp3583
(dp3584
g21
I00
sbsF54
g1
(g7
g3
NtRp3585
(dp3586
g10
g67
sg12
(dp3587
F1008
g1
(g18
g3
NtRp3588
(dp3589
g21
I01
sbsF1008.4
g1
(g18
g3
NtRp3590
(dp3591
g21
I01
sbsF1007.7
g1
(g18
g3
NtRp3592
(dp3593
g21
I01
sbssbsF57
g1
(g7
g3
NtRp3594
(dp3595
g10
g67
sg12
(dp3596
F1008
g1
(g18
g3
NtRp3597
(dp3598
g21
I01
sbsF1005.3
g1
(g18
g3
NtRp3599
(dp3600
g21
I01
sbsF1005
g1
(g18
g3
NtRp3601
(dp3602
g21
I01
sbsF1007.7
g1
(g18
g3
NtRp3603
(dp3604
g21
I01
sbssbsF58
g1
(g7
g3
NtRp3605
(dp3606
g10
g67
sg12
(dp3607
F1005.3
g1
(g18
g3
NtRp3608
(dp3609
g21
I00
sbsF1005.6
g1
(g18
g3
NtRp3610
(dp3611
g21
I00
sbsF1005
g1
(g18
g3
NtRp3612
(dp3613
g21
I00
sbssbsF59
g1
(g18
g3
NtRp3614
(dp3615
g21
I01
sbsF60
g1
(g18
g3
NtRp3616
(dp3617
g21
I00
sbsF61
g1
(g18
g3
NtRp3618
(dp3619
g21
I00
sbsF63
g1
(g18
g3
NtRp3620
(dp3621
g21
I00
sbssbsF14.300000000000001
g1
(g18
g3
NtRp3622
(dp3623
g21
I00
sbsF16.100000000000001
g1
(g7
g3
NtRp3624
(dp3625
g10
g67
sg12
(dp3626
F1012.8
g1
(g18
g3
NtRp3627
(dp3628
g21
I00
sbsF1010.4
g1
(g18
g3
NtRp3629
(dp3630
g21
I00
sbsF1009.4
g1
(g18
g3
NtRp3631
(dp3632
g21
I00
sbsF1009.7
g1
(g18
g3
NtRp3633
(dp3634
g21
I00
sbsF1007.7
g1
(g18
g3
NtRp3635
(dp3636
g21
I00
sbsF1013.1
g1
(g18
g3
NtRp3637
(dp3638
g21
I00
sbsF1011.7
g1
(g18
g3
NtRp3639
(dp3640
g21
I00
sbsF1011.1
g1
(g18
g3
NtRp3641
(dp3642
g21
I00
sbsF1008.4
g1
(g18
g3
NtRp3643
(dp3644
g21
I00
sbsF1006.7
g1
(g7
g3
NtRp3645
(dp3646
g10
g16
sg12
(dp3647
F81
g1
(g18
g3
NtRp3648
(dp3649
g21
I00
sbsF60
g1
(g18
g3
NtRp3650
(dp3651
g21
I00
sbsF61
g1
(g18
g3
NtRp3652
(dp3653
g21
I00
sbssbsF1005
g1
(g18
g3
NtRp3654
(dp3655
g21
I00
sbsF1008
g1
(g18
g3
NtRp3656
(dp3657
g21
I00
sbsF1009
g1
(g18
g3
NtRp3658
(dp3659
g21
I00
sbsF1010
g1
(g18
g3
NtRp3660
(dp3661
g21
I00
sbsF1005.6
g1
(g18
g3
NtRp3662
(dp3663
g21
I00
sbsF1007.3
g1
(g18
g3
NtRp3664
(dp3665
g21
I00
sbsF1008.7
g1
(g18
g3
NtRp3666
(dp3667
g21
I00
sbsF1005.3
g1
(g18
g3
NtRp3668
(dp3669
g21
I00
sbssbsF19.399999999999999
g1
(g7
g3
NtRp3670
(dp3671
g10
g67
sg12
(dp3672
F1005.3
g1
(g18
g3
NtRp3673
(dp3674
g21
I00
sbsF1010.4
g1
(g18
g3
NtRp3675
(dp3676
g21
I00
sbsF1008.4
g1
(g18
g3
NtRp3677
(dp3678
g21
I00
sbsF1008.7
g1
(g18
g3
NtRp3679
(dp3680
g21
I01
sbsF1009.7
g1
(g7
g3
NtRp3681
(dp3682
g10
g16
sg12
(dp3683
F42
g1
(g18
g3
NtRp3684
(dp3685
g21
I00
sbsF62
g1
(g18
g3
NtRp3686
(dp3687
g21
I00
sbsF54
g1
(g18
g3
NtRp3688
(dp3689
g21
I00
sbssbsF1006.3
g1
(g18
g3
NtRp3690
(dp3691
g21
I00
sbsF1007.7
g1
(g7
g3
NtRp3692
(dp3693
g10
g16
sg12
(dp3694
F58
g1
(g18
g3
NtRp3695
(dp3696
g21
I00
sbsF69
g1
(g18
g3
NtRp3697
(dp3698
g21
I00
sbssbsF1004.6
g1
(g18
g3
NtRp3699
(dp3700
g21
I01
sbsF1003.9
g1
(g18
g3
NtRp3701
(dp3702
g21
I01
sbsF1006.7
g1
(g18
g3
NtRp3703
(dp3704
g21
I00
sbsF1011.1
g1
(g18
g3
NtRp3705
(dp3706
g21
I00
sbsF1007
g1
(g18
g3
NtRp3707
(dp3708
g21
I00
sbsF1008
g1
(g18
g3
NtRp3709
(dp3710
g21
I00
sbsF1009
g1
(g18
g3
NtRp3711
(dp3712
g21
I00
sbsF1010
g1
(g18
g3
NtRp3713
(dp3714
g21
I00
sbsF1005.6
g1
(g18
g3
NtRp3715
(dp3716
g21
I01
sbsF1012.8
g1
(g18
g3
NtRp3717
(dp3718
g21
I00
sbsF1004.3
g1
(g18
g3
NtRp3719
(dp3720
g21
I01
sbsF1007.3
g1
(g18
g3
NtRp3721
(dp3722
g21
I00
sbsF1012.1
g1
(g18
g3
NtRp3723
(dp3724
g21
I00
sbssbsF17.800000000000001
g1
(g7
g3
NtRp3725
(dp3726
g10
g16
sg12
(dp3727
F45
g1
(g18
g3
NtRp3728
(dp3729
g21
I00
sbsF46
g1
(g18
g3
NtRp3730
(dp3731
g21
I00
sbsF48
g1
(g18
g3
NtRp3732
(dp3733
g21
I00
sbsF49
g1
(g18
g3
NtRp3734
(dp3735
g21
I00
sbsF51
g1
(g18
g3
NtRp3736
(dp3737
g21
I00
sbsF52
g1
(g18
g3
NtRp3738
(dp3739
g21
I00
sbsF53
g1
(g18
g3
NtRp3740
(dp3741
g21
I00
sbsF55
g1
(g18
g3
NtRp3742
(dp3743
g21
I01
sbsF56
g1
(g18
g3
NtRp3744
(dp3745
g21
I00
sbsF57
g1
(g18
g3
NtRp3746
(dp3747
g21
I00
sbsF58
g1
(g18
g3
NtRp3748
(dp3749
g21
I00
sbsF60
g1
(g7
g3
NtRp3750
(dp3751
g10
g67
sg12
(dp3752
F1006.3
g1
(g18
g3
NtRp3753
(dp3754
g21
I01
sbsF1007.7
g1
(g18
g3
NtRp3755
(dp3756
g21
I01
sbssbsF62
g1
(g18
g3
NtRp3757
(dp3758
g21
I00
sbsF64
g1
(g18
g3
NtRp3759
(dp3760
g21
I00
sbsF65
g1
(g18
g3
NtRp3761
(dp3762
g21
I00
sbsF67
g1
(g18
g3
NtRp3763
(dp3764
g21
I00
sbsF68
g1
(g18
g3
NtRp3765
(dp3766
g21
I00
sbsF69
g1
(g18
g3
NtRp3767
(dp3768
g21
I00
sbsF70
g1
(g18
g3
NtRp3769
(dp3770
g21
I00
sbsF71
g1
(g18
g3
NtRp3771
(dp3772
g21
I00
sbsF72
g1
(g18
g3
NtRp3773
(dp3774
g21
I00
sbsF74
g1
(g18
g3
NtRp3775
(dp3776
g21
I00
sbsF75
g1
(g18
g3
NtRp3777
(dp3778
g21
I00
sbsF76
g1
(g18
g3
NtRp3779
(dp3780
g21
I00
sbsF81
g1
(g18
g3
NtRp3781
(dp3782
g21
I00
sbssbsF17.5
g1
(g7
g3
NtRp3783
(dp3784
g10
g67
sg12
(dp3785
F1006.3
g1
(g18
g3
NtRp3786
(dp3787
g21
I01
sbsF1010
g1
(g18
g3
NtRp3788
(dp3789
g21
I00
sbsF1012.1
g1
(g18
g3
NtRp3790
(dp3791
g21
I00
sbsF1010.4
g1
(g18
g3
NtRp3792
(dp3793
g21
I00
sbsF1009.7
g1
(g18
g3
NtRp3794
(dp3795
g21
I00
sbssbsF25.100000000000001
g1
(g7
g3
NtRp3796
(dp3797
g10
g67
sg12
(dp3798
F1005.3
g1
(g18
g3
NtRp3799
(dp3800
g21
I01
sbsF1004.6
g1
(g7
g3
NtRp3801
(dp3802
g10
g16
sg12
(dp3803
F25
g1
(g18
g3
NtRp3804
(dp3805
g21
I00
sbsF41
g1
(g18
g3
NtRp3806
(dp3807
g21
I00
sbssbsF1007.7
g1
(g18
g3
NtRp3808
(dp3809
g21
I00
sbsF1009.7
g1
(g18
g3
NtRp3810
(dp3811
g21
I00
sbsF1010.7
g1
(g18
g3
NtRp3812
(dp3813
g21
I00
sbsF1009.4
g1
(g18
g3
NtRp3814
(dp3815
g21
I00
sbsF1001.9
g1
(g18
g3
NtRp3816
(dp3817
g21
I01
sbsF1006.7
g1
(g7
g3
NtRp3818
(dp3819
g10
g16
sg12
(dp3820
F42
g1
(g18
g3
NtRp3821
(dp3822
g21
I00
sbsF26
g1
(g18
g3
NtRp3823
(dp3824
g21
I00
sbsF31
g1
(g18
g3
NtRp3825
(dp3826
g21
I00
sbssbsF1005
g1
(g18
g3
NtRp3827
(dp3828
g21
I01
sbsF1008
g1
(g18
g3
NtRp3829
(dp3830
g21
I00
sbsF1009
g1
(g18
g3
NtRp3831
(dp3832
g21
I00
sbsF1003.6
g1
(g18
g3
NtRp3833
(dp3834
g21
I00
sbsF1006.3
g1
(g7
g3
NtRp3835
(dp3836
g10
g16
sg12
(dp3837
F43
g1
(g18
g3
NtRp3838
(dp3839
g21
I00
sbsF30
g1
(g18
g3
NtRp3840
(dp3841
g21
I00
sbssbsF1004.3
g1
(g18
g3
NtRp3842
(dp3843
g21
I01
sbsF1007.3
g1
(g18
g3
NtRp3844
(dp3845
g21
I00
sbsF1007
g1
(g18
g3
NtRp3846
(dp3847
g21
I01
sbssbsF26.800000000000001
g1
(g7
g3
NtRp3848
(dp3849
g10
g16
sg12
(dp3850
F32
g1
(g7
g3
NtRp3851
(dp3852
g10
g67
sg12
(dp3853
F1005.3
g1
(g18
g3
NtRp3854
(dp3855
g21
I01
sbsF1001.2
g1
(g18
g3
NtRp3856
(dp3857
g21
I01
sbssbsF33
g1
(g7
g3
NtRp3858
(dp3859
g10
g67
sg12
(dp3860
F1005.3
g1
(g18
g3
NtRp3861
(dp3862
g21
I01
sbsF1003.6
g1
(g18
g3
NtRp3863
(dp3864
g21
I01
sbsF1002.9
g1
(g18
g3
NtRp3865
(dp3866
g21
I01
sbsF1001.2
g1
(g18
g3
NtRp3867
(dp3868
g21
I01
sbssbsF34
g1
(g18
g3
NtRp3869
(dp3870
g21
I01
sbsF35
g1
(g18
g3
NtRp3871
(dp3872
g21
I01
sbsF36
g1
(g18
g3
NtRp3873
(dp3874
g21
I01
sbsF40
g1
(g18
g3
NtRp3875
(dp3876
g21
I00
sbsF20
g1
(g18
g3
NtRp3877
(dp3878
g21
I01
sbsF25
g1
(g18
g3
NtRp3879
(dp3880
g21
I01
sbsF26
g1
(g7
g3
NtRp3881
(dp3882
g10
g67
sg12
(dp3883
F1003.3
g1
(g18
g3
NtRp3884
(dp3885
g21
I00
sbsF1004.6
g1
(g18
g3
NtRp3886
(dp3887
g21
I00
sbsF1003.9
g1
(g18
g3
NtRp3888
(dp3889
g21
I00
sbsF1006
g1
(g18
g3
NtRp3890
(dp3891
g21
I00
sbssbsF27
g1
(g7
g3
NtRp3892
(dp3893
g10
g67
sg12
(dp3894
F1004.3
g1
(g18
g3
NtRp3895
(dp3896
g21
I00
sbsF1003.9
g1
(g18
g3
NtRp3897
(dp3898
g21
I00
sbssbsF29
g1
(g7
g3
NtRp3899
(dp3900
g10
g67
sg12
(dp3901
F1003.3
g1
(g18
g3
NtRp3902
(dp3903
g21
I01
sbsF1001.6
g1
(g18
g3
NtRp3904
(dp3905
g21
I01
sbsF1003.9
g1
(g18
g3
NtRp3906
(dp3907
g21
I01
sbsF1000.9
g1
(g18
g3
NtRp3908
(dp3909
g21
I01
sbsF1004.3
g1
(g18
g3
NtRp3910
(dp3911
g21
I01
sbssbsF30
g1
(g7
g3
NtRp3912
(dp3913
g10
g67
sg12
(dp3914
F1003.3
g1
(g18
g3
NtRp3915
(dp3916
g21
I00
sbsF1001.9
g1
(g18
g3
NtRp3917
(dp3918
g21
I00
sbsF1007.7
g1
(g18
g3
NtRp3919
(dp3920
g21
I00
sbsF1001.2
g1
(g18
g3
NtRp3921
(dp3922
g21
I00
sbssbsF31
g1
(g18
g3
NtRp3923
(dp3924
g21
I01
sbssbsF22.199999999999999
g1
(g7
g3
NtRp3925
(dp3926
g10
g16
sg12
(dp3927
F32
g1
(g18
g3
NtRp3928
(dp3929
g21
I00
sbsF33
g1
(g18
g3
NtRp3930
(dp3931
g21
I00
sbsF36
g1
(g18
g3
NtRp3932
(dp3933
g21
I00
sbsF39
g1
(g18
g3
NtRp3934
(dp3935
g21
I00
sbsF43
g1
(g18
g3
NtRp3936
(dp3937
g21
I00
sbsF44
g1
(g7
g3
NtRp3938
(dp3939
g10
g67
sg12
(dp3940
F1003.3
g1
(g18
g3
NtRp3941
(dp3942
g21
I00
sbsF1010
g1
(g18
g3
NtRp3943
(dp3944
g21
I00
sbsF1008.7
g1
(g18
g3
NtRp3945
(dp3946
g21
I00
sbssbsF45
g1
(g7
g3
NtRp3947
(dp3948
g10
g67
sg12
(dp3949
F1010
g1
(g18
g3
NtRp3950
(dp3951
g21
I00
sbsF1008.4
g1
(g18
g3
NtRp3952
(dp3953
g21
I00
sbssbsF46
g1
(g7
g3
NtRp3954
(dp3955
g10
g67
sg12
(dp3956
F1004.3
g1
(g18
g3
NtRp3957
(dp3958
g21
I00
sbsF1006
g1
(g18
g3
NtRp3959
(dp3960
g21
I00
sbssbsF48
g1
(g18
g3
NtRp3961
(dp3962
g21
I00
sbsF49
g1
(g7
g3
NtRp3963
(dp3964
g10
g67
sg12
(dp3965
F1007.3
g1
(g18
g3
NtRp3966
(dp3967
g21
I00
sbsF1009.7
g1
(g18
g3
NtRp3968
(dp3969
g21
I00
sbssbsF50
g1
(g7
g3
NtRp3970
(dp3971
g10
g67
sg12
(dp3972
F1008
g1
(g18
g3
NtRp3973
(dp3974
g21
I00
sbsF1007.3
g1
(g18
g3
NtRp3975
(dp3976
g21
I00
sbssbsF51
g1
(g7
g3
NtRp3977
(dp3978
g10
g67
sg12
(dp3979
F1008
g1
(g18
g3
NtRp3980
(dp3981
g21
I00
sbsF1010.4
g1
(g18
g3
NtRp3982
(dp3983
g21
I00
sbssbsF52
g1
(g7
g3
NtRp3984
(dp3985
g10
g67
sg12
(dp3986
F1010
g1
(g18
g3
NtRp3987
(dp3988
g21
I01
sbsF1006.7
g1
(g18
g3
NtRp3989
(dp3990
g21
I01
sbsF1006
g1
(g18
g3
NtRp3991
(dp3992
g21
I01
sbssbsF53
g1
(g18
g3
NtRp3993
(dp3994
g21
I00
sbsF54
g1
(g7
g3
NtRp3995
(dp3996
g10
g67
sg12
(dp3997
F1007.7
g1
(g18
g3
NtRp3998
(dp3999
g21
I00
sbsF1011.7
g1
(g18
g3
NtRp4000
(dp4001
g21
I00
sbssbsF57
g1
(g18
g3
NtRp4002
(dp4003
g21
I00
sbsF59
g1
(g18
g3
NtRp4004
(dp4005
g21
I00
sbsF61
g1
(g18
g3
NtRp4006
(dp4007
g21
I00
sbssbsF23.899999999999999
g1
(g7
g3
NtRp4008
(dp4009
g10
g67
sg12
(dp4010
F1007.3
g1
(g7
g3
NtRp4011
(dp4012
g10
g16
sg12
(dp4013
F44
g1
(g18
g3
NtRp4014
(dp4015
g21
I01
sbsF28
g1
(g18
g3
NtRp4016
(dp4017
g21
I01
sbsF33
g1
(g18
g3
NtRp4018
(dp4019
g21
I01
sbssbsF1005.6
g1
(g7
g3
NtRp4020
(dp4021
g10
g16
sg12
(dp4022
F40
g1
(g18
g3
NtRp4023
(dp4024
g21
I00
sbsF42
g1
(g18
g3
NtRp4025
(dp4026
g21
I00
sbssbsF1008.4
g1
(g18
g3
NtRp4027
(dp4028
g21
I00
sbsF1007.7
g1
(g18
g3
NtRp4029
(dp4030
g21
I00
sbsF1006.7
g1
(g18
g3
NtRp4031
(dp4032
g21
I00
sbsF1012.4
g1
(g18
g3
NtRp4033
(dp4034
g21
I00
sbsF1010.4
g1
(g18
g3
NtRp4035
(dp4036
g21
I00
sbsF1009.7
g1
(g18
g3
NtRp4037
(dp4038
g21
I00
sbsF1006
g1
(g18
g3
NtRp4039
(dp4040
g21
I00
sbsF1005
g1
(g18
g3
NtRp4041
(dp4042
g21
I00
sbsF1008
g1
(g18
g3
NtRp4043
(dp4044
g21
I00
sbsF1009
g1
(g18
g3
NtRp4045
(dp4046
g21
I00
sbsF1010
g1
(g18
g3
NtRp4047
(dp4048
g21
I01
sbsF1003.6
g1
(g18
g3
NtRp4049
(dp4050
g21
I00
sbsF1006.3
g1
(g18
g3
NtRp4051
(dp4052
g21
I00
sbsF1003.3
g1
(g18
g3
NtRp4053
(dp4054
g21
I00
sbsF1007
g1
(g18
g3
NtRp4055
(dp4056
g21
I01
sbssbsF26.300000000000001
g1
(g7
g3
NtRp4057
(dp4058
g10
g16
sg12
(dp4059
F33
g1
(g7
g3
NtRp4060
(dp4061
g10
g67
sg12
(dp4062
F1008
g1
(g18
g3
NtRp4063
(dp4064
g21
I00
sbsF1001.9
g1
(g18
g3
NtRp4065
(dp4066
g21
I00
sbssbsF34
g1
(g7
g3
NtRp4067
(dp4068
g10
g67
sg12
(dp4069
F1008
g1
(g18
g3
NtRp4070
(dp4071
g21
I00
sbsF1007.3
g1
(g18
g3
NtRp4072
(dp4073
g21
I00
sbsF1003.6
g1
(g18
g3
NtRp4074
(dp4075
g21
I00
sbsF1003.9
g1
(g18
g3
NtRp4076
(dp4077
g21
I00
sbsF1006.7
g1
(g18
g3
NtRp4078
(dp4079
g21
I00
sbssbsF35
g1
(g18
g3
NtRp4080
(dp4081
g21
I00
sbsF36
g1
(g18
g3
NtRp4082
(dp4083
g21
I00
sbsF37
g1
(g18
g3
NtRp4084
(dp4085
g21
I00
sbsF38
g1
(g18
g3
NtRp4086
(dp4087
g21
I01
sbsF40
g1
(g18
g3
NtRp4088
(dp4089
g21
I00
sbsF41
g1
(g18
g3
NtRp4090
(dp4091
g21
I00
sbsF22
g1
(g18
g3
NtRp4092
(dp4093
g21
I01
sbsF26
g1
(g7
g3
NtRp4094
(dp4095
g10
g67
sg12
(dp4096
F1008
g1
(g18
g3
NtRp4097
(dp4098
g21
I00
sbsF1005
g1
(g18
g3
NtRp4099
(dp4100
g21
I00
sbssbsF27
g1
(g7
g3
NtRp4101
(dp4102
g10
g67
sg12
(dp4103
F1005.3
g1
(g18
g3
NtRp4104
(dp4105
g21
I00
sbsF1007.7
g1
(g18
g3
NtRp4106
(dp4107
g21
I00
sbssbsF28
g1
(g18
g3
NtRp4108
(dp4109
g21
I01
sbsF29
g1
(g18
g3
NtRp4110
(dp4111
g21
I01
sbsF30
g1
(g18
g3
NtRp4112
(dp4113
g21
I01
sbsF31
g1
(g7
g3
NtRp4114
(dp4115
g10
g67
sg12
(dp4116
F1000.6
g1
(g18
g3
NtRp4117
(dp4118
g21
I01
sbsF1003.9
g1
(g18
g3
NtRp4119
(dp4120
g21
I01
sbsF1007.7
g1
(g18
g3
NtRp4121
(dp4122
g21
I01
sbssbssbsF17.300000000000001
g1
(g7
g3
NtRp4123
(dp4124
g10
g16
sg12
(dp4125
F46
g1
(g7
g3
NtRp4126
(dp4127
g10
g67
sg12
(dp4128
F1009
g1
(g18
g3
NtRp4129
(dp4130
g21
I00
sbssbsF50
g1
(g18
g3
NtRp4131
(dp4132
g21
I00
sbsF51
g1
(g18
g3
NtRp4133
(dp4134
g21
I00
sbsF54
g1
(g18
g3
NtRp4135
(dp4136
g21
I00
sbsF55
g1
(g18
g3
NtRp4137
(dp4138
g21
I00
sbsF56
g1
(g18
g3
NtRp4139
(dp4140
g21
I01
sbsF57
g1
(g18
g3
NtRp4141
(dp4142
g21
I01
sbsF62
g1
(g18
g3
NtRp4143
(dp4144
g21
I00
sbsF63
g1
(g18
g3
NtRp4145
(dp4146
g21
I00
sbsF66
g1
(g18
g3
NtRp4147
(dp4148
g21
I00
sbsF67
g1
(g18
g3
NtRp4149
(dp4150
g21
I00
sbsF68
g1
(g18
g3
NtRp4151
(dp4152
g21
I00
sbsF69
g1
(g18
g3
NtRp4153
(dp4154
g21
I00
sbsF70
g1
(g18
g3
NtRp4155
(dp4156
g21
I00
sbsF71
g1
(g18
g3
NtRp4157
(dp4158
g21
I00
sbsF73
g1
(g18
g3
NtRp4159
(dp4160
g21
I00
sbsF75
g1
(g18
g3
NtRp4161
(dp4162
g21
I00
sbsF76
g1
(g18
g3
NtRp4163
(dp4164
g21
I00
sbsF77
g1
(g18
g3
NtRp4165
(dp4166
g21
I00
sbsF78
g1
(g18
g3
NtRp4167
(dp4168
g21
I00
sbsF80
g1
(g18
g3
NtRp4169
(dp4170
g21
I00
sbsF82
g1
(g18
g3
NtRp4171
(dp4172
g21
I00
sbsF83
g1
(g18
g3
NtRp4173
(dp4174
g21
I00
sbsF85
g1
(g18
g3
NtRp4175
(dp4176
g21
I00
sbssbsF15.4
g1
(g18
g3
NtRp4177
(dp4178
g21
I00
sbsF16.600000000000001
g1
(g7
g3
NtRp4179
(dp4180
g10
g67
sg12
(dp4181
F1010.4
g1
(g18
g3
NtRp4182
(dp4183
g21
I00
sbsF1012.4
g1
(g18
g3
NtRp4184
(dp4185
g21
I00
sbsF1009.7
g1
(g7
g3
NtRp4186
(dp4187
g10
g16
sg12
(dp4188
F80
g1
(g18
g3
NtRp4189
(dp4190
g21
I00
sbsF50
g1
(g18
g3
NtRp4191
(dp4192
g21
I00
sbsF74
g1
(g18
g3
NtRp4193
(dp4194
g21
I00
sbssbsF1008.7
g1
(g18
g3
NtRp4195
(dp4196
g21
I00
sbsF1006.7
g1
(g18
g3
NtRp4197
(dp4198
g21
I00
sbsF1011.1
g1
(g18
g3
NtRp4199
(dp4200
g21
I00
sbsF1011.4
g1
(g18
g3
NtRp4201
(dp4202
g21
I00
sbsF1010.7
g1
(g18
g3
NtRp4203
(dp4204
g21
I00
sbsF1007
g1
(g18
g3
NtRp4205
(dp4206
g21
I00
sbsF1008
g1
(g18
g3
NtRp4207
(dp4208
g21
I00
sbsF1009
g1
(g18
g3
NtRp4209
(dp4210
g21
I00
sbsF1013.1
g1
(g18
g3
NtRp4211
(dp4212
g21
I00
sbsF1005.6
g1
(g18
g3
NtRp4213
(dp4214
g21
I00
sbsF1009.4
g1
(g18
g3
NtRp4215
(dp4216
g21
I00
sbsF1012.8
g1
(g18
g3
NtRp4217
(dp4218
g21
I00
sbsF1007.3
g1
(g7
g3
NtRp4219
(dp4220
g10
g16
sg12
(dp4221
F74
g1
(g18
g3
NtRp4222
(dp4223
g21
I00
sbsF75
g1
(g18
g3
NtRp4224
(dp4225
g21
I00
sbsF58
g1
(g18
g3
NtRp4226
(dp4227
g21
I00
sbssbsF1012.1
g1
(g18
g3
NtRp4228
(dp4229
g21
I00
sbssbsF18.300000000000001
g1
(g7
g3
NtRp4230
(dp4231
g10
g67
sg12
(dp4232
F1006.3
g1
(g7
g3
NtRp4233
(dp4234
g10
g16
sg12
(dp4235
F56
g1
(g18
g3
NtRp4236
(dp4237
g21
I00
sbsF49
g1
(g18
g3
NtRp4238
(dp4239
g21
I00
sbssbsF1011.1
g1
(g18
g3
NtRp4240
(dp4241
g21
I00
sbsF1009.7
g1
(g18
g3
NtRp4242
(dp4243
g21
I00
sbsF1007.7
g1
(g7
g3
NtRp4244
(dp4245
g10
g16
sg12
(dp4246
F56
g1
(g18
g3
NtRp4247
(dp4248
g21
I00
sbsF73
g1
(g18
g3
NtRp4249
(dp4250
g21
I00
sbsF57
g1
(g18
g3
NtRp4251
(dp4252
g21
I00
sbssbsF1010.7
g1
(g18
g3
NtRp4253
(dp4254
g21
I00
sbsF1011.4
g1
(g18
g3
NtRp4255
(dp4256
g21
I00
sbsF1009.4
g1
(g18
g3
NtRp4257
(dp4258
g21
I00
sbsF1008.7
g1
(g18
g3
NtRp4259
(dp4260
g21
I00
sbsF1006
g1
(g7
g3
NtRp4261
(dp4262
g10
g16
sg12
(dp4263
F60
g1
(g18
g3
NtRp4264
(dp4265
g21
I00
sbsF68
g1
(g18
g3
NtRp4266
(dp4267
g21
I00
sbssbsF1006.7
g1
(g18
g3
NtRp4268
(dp4269
g21
I01
sbsF1008
g1
(g18
g3
NtRp4270
(dp4271
g21
I00
sbsF1010
g1
(g18
g3
NtRp4272
(dp4273
g21
I00
sbsF1005.6
g1
(g18
g3
NtRp4274
(dp4275
g21
I00
sbsF1007.3
g1
(g18
g3
NtRp4276
(dp4277
g21
I01
sbsF1012.8
g1
(g18
g3
NtRp4278
(dp4279
g21
I00
sbsF1007
g1
(g18
g3
NtRp4280
(dp4281
g21
I01
sbssbsF25.300000000000001
g1
(g7
g3
NtRp4282
(dp4283
g10
g67
sg12
(dp4284
F1007.3
g1
(g7
g3
NtRp4285
(dp4286
g10
g16
sg12
(dp4287
F43
g1
(g18
g3
NtRp4288
(dp4289
g21
I00
sbsF38
g1
(g18
g3
NtRp4290
(dp4291
g21
I00
sbssbsF1004.6
g1
(g7
g3
NtRp4292
(dp4293
g10
g16
sg12
(dp4294
F36
g1
(g18
g3
NtRp4295
(dp4296
g21
I00
sbssbsF1008.4
g1
(g18
g3
NtRp4297
(dp4298
g21
I00
sbsF1008.7
g1
(g18
g3
NtRp4299
(dp4300
g21
I00
sbsF1006.7
g1
(g18
g3
NtRp4301
(dp4302
g21
I00
sbsF1003.6
g1
(g18
g3
NtRp4303
(dp4304
g21
I01
sbsF1009.4
g1
(g18
g3
NtRp4305
(dp4306
g21
I00
sbsF1007.7
g1
(g18
g3
NtRp4307
(dp4308
g21
I00
sbsF1006
g1
(g18
g3
NtRp4309
(dp4310
g21
I00
sbsF1005
g1
(g7
g3
NtRp4311
(dp4312
g10
g16
sg12
(dp4313
F24
g1
(g18
g3
NtRp4314
(dp4315
g21
I01
sbsF34
g1
(g18
g3
NtRp4316
(dp4317
g21
I01
sbsF21
g1
(g18
g3
NtRp4318
(dp4319
g21
I01
sbssbsF1008
g1
(g18
g3
NtRp4320
(dp4321
g21
I00
sbsF1009
g1
(g18
g3
NtRp4322
(dp4323
g21
I00
sbsF1010
g1
(g18
g3
NtRp4324
(dp4325
g21
I00
sbsF1001.6
g1
(g18
g3
NtRp4326
(dp4327
g21
I01
sbsF1006.3
g1
(g18
g3
NtRp4328
(dp4329
g21
I00
sbsF1004.3
g1
(g18
g3
NtRp4330
(dp4331
g21
I01
sbsF1003.3
g1
(g18
g3
NtRp4332
(dp4333
g21
I00
sbsF1007
g1
(g18
g3
NtRp4334
(dp4335
g21
I00
sbsF1005.3
g1
(g18
g3
NtRp4336
(dp4337
g21
I00
sbssbsF22.699999999999999
g1
(g7
g3
NtRp4338
(dp4339
g10
g67
sg12
(dp4340
F1012.1
g1
(g18
g3
NtRp4341
(dp4342
g21
I00
sbsF1009.4
g1
(g18
g3
NtRp4343
(dp4344
g21
I00
sbsF1009.7
g1
(g18
g3
NtRp4345
(dp4346
g21
I00
sbsF1006.7
g1
(g18
g3
NtRp4347
(dp4348
g21
I00
sbsF1007.7
g1
(g7
g3
NtRp4349
(dp4350
g10
g16
sg12
(dp4351
F42
g1
(g18
g3
NtRp4352
(dp4353
g21
I00
sbsF36
g1
(g18
g3
NtRp4354
(dp4355
g21
I00
sbsF30
g1
(g18
g3
NtRp4356
(dp4357
g21
I00
sbssbsF1004.6
g1
(g18
g3
NtRp4358
(dp4359
g21
I01
sbsF1010.4
g1
(g18
g3
NtRp4360
(dp4361
g21
I00
sbsF1008.7
g1
(g18
g3
NtRp4362
(dp4363
g21
I00
sbsF1006
g1
(g18
g3
NtRp4364
(dp4365
g21
I00
sbsF1007
g1
(g18
g3
NtRp4366
(dp4367
g21
I00
sbsF1008
g1
(g18
g3
NtRp4368
(dp4369
g21
I01
sbsF1010
g1
(g18
g3
NtRp4370
(dp4371
g21
I00
sbsF1005.6
g1
(g18
g3
NtRp4372
(dp4373
g21
I00
sbsF1006.3
g1
(g18
g3
NtRp4374
(dp4375
g21
I00
sbsF1004.3
g1
(g18
g3
NtRp4376
(dp4377
g21
I00
sbssbsF24.399999999999999
g1
(g7
g3
NtRp4378
(dp4379
g10
g67
sg12
(dp4380
F1008.7
g1
(g18
g3
NtRp4381
(dp4382
g21
I00
sbsF1007.7
g1
(g18
g3
NtRp4383
(dp4384
g21
I00
sbsF1002.9
g1
(g18
g3
NtRp4385
(dp4386
g21
I01
sbsF1009.4
g1
(g18
g3
NtRp4387
(dp4388
g21
I00
sbsF1006
g1
(g18
g3
NtRp4389
(dp4390
g21
I00
sbsF1008
g1
(g18
g3
NtRp4391
(dp4392
g21
I00
sbsF1009
g1
(g18
g3
NtRp4393
(dp4394
g21
I00
sbsF1010
g1
(g18
g3
NtRp4395
(dp4396
g21
I00
sbsF1005.6
g1
(g7
g3
NtRp4397
(dp4398
g10
g16
sg12
(dp4399
F40
g1
(g18
g3
NtRp4400
(dp4401
g21
I00
sbsF43
g1
(g18
g3
NtRp4402
(dp4403
g21
I00
sbsF31
g1
(g18
g3
NtRp4404
(dp4405
g21
I00
sbssbsF1005.3
g1
(g18
g3
NtRp4406
(dp4407
g21
I00
sbssbsF24.699999999999999
g1
(g7
g3
NtRp4408
(dp4409
g10
g16
sg12
(dp4410
F32
g1
(g18
g3
NtRp4411
(dp4412
g21
I00
sbsF33
g1
(g18
g3
NtRp4413
(dp4414
g21
I01
sbsF35
g1
(g18
g3
NtRp4415
(dp4416
g21
I00
sbsF36
g1
(g7
g3
NtRp4417
(dp4418
g10
g67
sg12
(dp4419
F1009.4
g1
(g18
g3
NtRp4420
(dp4421
g21
I00
sbsF1008.4
g1
(g18
g3
NtRp4422
(dp4423
g21
I00
sbsF1008.7
g1
(g18
g3
NtRp4424
(dp4425
g21
I00
sbsF1004.3
g1
(g18
g3
NtRp4426
(dp4427
g21
I00
sbssbsF37
g1
(g18
g3
NtRp4428
(dp4429
g21
I00
sbsF38
g1
(g18
g3
NtRp4430
(dp4431
g21
I00
sbsF39
g1
(g7
g3
NtRp4432
(dp4433
g10
g67
sg12
(dp4434
F1005.6
g1
(g18
g3
NtRp4435
(dp4436
g21
I00
sbsF1008.4
g1
(g18
g3
NtRp4437
(dp4438
g21
I00
sbssbsF42
g1
(g18
g3
NtRp4439
(dp4440
g21
I00
sbsF43
g1
(g18
g3
NtRp4441
(dp4442
g21
I00
sbsF45
g1
(g18
g3
NtRp4443
(dp4444
g21
I00
sbsF47
g1
(g18
g3
NtRp4445
(dp4446
g21
I00
sbsF48
g1
(g18
g3
NtRp4447
(dp4448
g21
I00
sbsF49
g1
(g18
g3
NtRp4449
(dp4450
g21
I00
sbsF25
g1
(g18
g3
NtRp4451
(dp4452
g21
I00
sbsF26
g1
(g18
g3
NtRp4453
(dp4454
g21
I00
sbsF27
g1
(g18
g3
NtRp4455
(dp4456
g21
I00
sbsF28
g1
(g18
g3
NtRp4457
(dp4458
g21
I01
sbsF29
g1
(g18
g3
NtRp4459
(dp4460
g21
I00
sbsF30
g1
(g18
g3
NtRp4461
(dp4462
g21
I00
sbsF31
g1
(g18
g3
NtRp4463
(dp4464
g21
I01
sbssbsF26.399999999999999
g1
(g7
g3
NtRp4465
(dp4466
g10
g16
sg12
(dp4467
F32
g1
(g18
g3
NtRp4468
(dp4469
g21
I00
sbsF33
g1
(g18
g3
NtRp4470
(dp4471
g21
I00
sbsF35
g1
(g18
g3
NtRp4472
(dp4473
g21
I00
sbsF37
g1
(g18
g3
NtRp4474
(dp4475
g21
I00
sbsF41
g1
(g18
g3
NtRp4476
(dp4477
g21
I00
sbsF42
g1
(g18
g3
NtRp4478
(dp4479
g21
I00
sbsF20
g1
(g18
g3
NtRp4480
(dp4481
g21
I01
sbsF21
g1
(g18
g3
NtRp4482
(dp4483
g21
I01
sbsF22
g1
(g18
g3
NtRp4484
(dp4485
g21
I01
sbsF25
g1
(g18
g3
NtRp4486
(dp4487
g21
I00
sbsF26
g1
(g18
g3
NtRp4488
(dp4489
g21
I00
sbsF28
g1
(g18
g3
NtRp4490
(dp4491
g21
I01
sbsF29
g1
(g18
g3
NtRp4492
(dp4493
g21
I01
sbsF30
g1
(g7
g3
NtRp4494
(dp4495
g10
g67
sg12
(dp4496
F1004.3
g1
(g18
g3
NtRp4497
(dp4498
g21
I00
sbsF1004.6
g1
(g18
g3
NtRp4499
(dp4500
g21
I00
sbssbsF31
g1
(g18
g3
NtRp4501
(dp4502
g21
I01
sbssbsF14.800000000000001
g1
(g18
g3
NtRp4503
(dp4504
g21
I00
sbsF17.100000000000001
g1
(g7
g3
NtRp4505
(dp4506
g10
g16
sg12
(dp4507
F47
g1
(g18
g3
NtRp4508
(dp4509
g21
I00
sbsF49
g1
(g18
g3
NtRp4510
(dp4511
g21
I00
sbsF54
g1
(g18
g3
NtRp4512
(dp4513
g21
I00
sbsF57
g1
(g18
g3
NtRp4514
(dp4515
g21
I01
sbsF58
g1
(g18
g3
NtRp4516
(dp4517
g21
I01
sbsF60
g1
(g18
g3
NtRp4518
(dp4519
g21
I00
sbsF61
g1
(g18
g3
NtRp4520
(dp4521
g21
I00
sbsF63
g1
(g18
g3
NtRp4522
(dp4523
g21
I00
sbsF68
g1
(g18
g3
NtRp4524
(dp4525
g21
I00
sbsF69
g1
(g18
g3
NtRp4526
(dp4527
g21
I00
sbsF70
g1
(g18
g3
NtRp4528
(dp4529
g21
I00
sbsF71
g1
(g18
g3
NtRp4530
(dp4531
g21
I00
sbsF72
g1
(g18
g3
NtRp4532
(dp4533
g21
I00
sbsF75
g1
(g18
g3
NtRp4534
(dp4535
g21
I00
sbsF76
g1
(g18
g3
NtRp4536
(dp4537
g21
I00
sbsF77
g1
(g18
g3
NtRp4538
(dp4539
g21
I00
sbsF78
g1
(g18
g3
NtRp4540
(dp4541
g21
I00
sbsF79
g1
(g18
g3
NtRp4542
(dp4543
g21
I00
sbsF80
g1
(g18
g3
NtRp4544
(dp4545
g21
I00
sbsF82
g1
(g18
g3
NtRp4546
(dp4547
g21
I00
sbsF83
g1
(g18
g3
NtRp4548
(dp4549
g21
I00
sbsF84
g1
(g18
g3
NtRp4550
(dp4551
g21
I00
sbsF85
g1
(g18
g3
NtRp4552
(dp4553
g21
I00
sbssbsF14.699999999999999
g1
(g18
g3
NtRp4554
(dp4555
g21
I00
sbsF15.5
g1
(g7
g3
NtRp4556
(dp4557
g10
g16
sg12
(dp4558
F69
g1
(g18
g3
NtRp4559
(dp4560
g21
I00
sbsF71
g1
(g18
g3
NtRp4561
(dp4562
g21
I00
sbsF76
g1
(g18
g3
NtRp4563
(dp4564
g21
I00
sbsF77
g1
(g18
g3
NtRp4565
(dp4566
g21
I00
sbsF78
g1
(g18
g3
NtRp4567
(dp4568
g21
I00
sbsF79
g1
(g18
g3
NtRp4569
(dp4570
g21
I00
sbsF80
g1
(g18
g3
NtRp4571
(dp4572
g21
I00
sbsF81
g1
(g18
g3
NtRp4573
(dp4574
g21
I00
sbsF84
g1
(g18
g3
NtRp4575
(dp4576
g21
I00
sbsF59
g1
(g18
g3
NtRp4577
(dp4578
g21
I01
sbssbsF26.5
g1
(g7
g3
NtRp4579
(dp4580
g10
g16
sg12
(dp4581
F32
g1
(g7
g3
NtRp4582
(dp4583
g10
g67
sg12
(dp4584
F1003.9
g1
(g18
g3
NtRp4585
(dp4586
g21
I00
sbsF1006.7
g1
(g18
g3
NtRp4587
(dp4588
g21
I00
sbsF1007.7
g1
(g18
g3
NtRp4589
(dp4590
g21
I00
sbssbsF33
g1
(g7
g3
NtRp4591
(dp4592
g10
g67
sg12
(dp4593
F1003.9
g1
(g18
g3
NtRp4594
(dp4595
g21
I01
sbsF1006.7
g1
(g18
g3
NtRp4596
(dp4597
g21
I01
sbssbsF34
g1
(g18
g3
NtRp4598
(dp4599
g21
I00
sbsF37
g1
(g18
g3
NtRp4600
(dp4601
g21
I00
sbsF40
g1
(g18
g3
NtRp4602
(dp4603
g21
I00
sbsF27
g1
(g7
g3
NtRp4604
(dp4605
g10
g67
sg12
(dp4606
F1008
g1
(g18
g3
NtRp4607
(dp4608
g21
I01
sbsF1003.3
g1
(g18
g3
NtRp4609
(dp4610
g21
I01
sbsF1005
g1
(g18
g3
NtRp4611
(dp4612
g21
I01
sbssbsF29
g1
(g18
g3
NtRp4613
(dp4614
g21
I01
sbsF30
g1
(g18
g3
NtRp4615
(dp4616
g21
I01
sbsF31
g1
(g18
g3
NtRp4617
(dp4618
g21
I00
sbssbsF23.199999999999999
g1
(g7
g3
NtRp4619
(dp4620
g10
g16
sg12
(dp4621
F32
g1
(g18
g3
NtRp4622
(dp4623
g21
I00
sbsF35
g1
(g18
g3
NtRp4624
(dp4625
g21
I00
sbsF36
g1
(g18
g3
NtRp4626
(dp4627
g21
I00
sbsF37
g1
(g18
g3
NtRp4628
(dp4629
g21
I00
sbsF38
g1
(g18
g3
NtRp4630
(dp4631
g21
I00
sbsF39
g1
(g18
g3
NtRp4632
(dp4633
g21
I00
sbsF40
g1
(g18
g3
NtRp4634
(dp4635
g21
I00
sbsF41
g1
(g18
g3
NtRp4636
(dp4637
g21
I00
sbsF42
g1
(g18
g3
NtRp4638
(dp4639
g21
I00
sbsF43
g1
(g18
g3
NtRp4640
(dp4641
g21
I00
sbsF44
g1
(g7
g3
NtRp4642
(dp4643
g10
g67
sg12
(dp4644
F1008
g1
(g18
g3
NtRp4645
(dp4646
g21
I00
sbsF1010
g1
(g18
g3
NtRp4647
(dp4648
g21
I00
sbssbsF45
g1
(g18
g3
NtRp4649
(dp4650
g21
I00
sbsF46
g1
(g18
g3
NtRp4651
(dp4652
g21
I00
sbsF47
g1
(g18
g3
NtRp4653
(dp4654
g21
I00
sbsF48
g1
(g18
g3
NtRp4655
(dp4656
g21
I01
sbsF50
g1
(g18
g3
NtRp4657
(dp4658
g21
I01
sbsF56
g1
(g18
g3
NtRp4659
(dp4660
g21
I01
sbssbsF16.899999999999999
g1
(g7
g3
NtRp4661
(dp4662
g10
g67
sg12
(dp4663
F1007.3
g1
(g7
g3
NtRp4664
(dp4665
g10
g16
sg12
(dp4666
F58
g1
(g18
g3
NtRp4667
(dp4668
g21
I00
sbsF79
g1
(g18
g3
NtRp4669
(dp4670
g21
I00
sbssbsF1011.1
g1
(g18
g3
NtRp4671
(dp4672
g21
I00
sbsF1005.6
g1
(g18
g3
NtRp4673
(dp4674
g21
I00
sbsF1012.4
g1
(g18
g3
NtRp4675
(dp4676
g21
I00
sbsF1008.7
g1
(g18
g3
NtRp4677
(dp4678
g21
I00
sbsF1007.7
g1
(g7
g3
NtRp4679
(dp4680
g10
g16
sg12
(dp4681
F57
g1
(g18
g3
NtRp4682
(dp4683
g21
I00
sbsF68
g1
(g18
g3
NtRp4684
(dp4685
g21
I00
sbsF70
g1
(g18
g3
NtRp4686
(dp4687
g21
I00
sbssbsF1008.4
g1
(g18
g3
NtRp4688
(dp4689
g21
I00
sbsF1010.4
g1
(g18
g3
NtRp4690
(dp4691
g21
I00
sbsF1009.7
g1
(g18
g3
NtRp4692
(dp4693
g21
I00
sbsF1007
g1
(g18
g3
NtRp4694
(dp4695
g21
I01
sbsF1008
g1
(g18
g3
NtRp4696
(dp4697
g21
I00
sbsF1009
g1
(g7
g3
NtRp4698
(dp4699
g10
g16
sg12
(dp4700
F75
g1
(g18
g3
NtRp4701
(dp4702
g21
I00
sbsF60
g1
(g18
g3
NtRp4703
(dp4704
g21
I00
sbsF78
g1
(g18
g3
NtRp4705
(dp4706
g21
I00
sbsF70
g1
(g18
g3
NtRp4707
(dp4708
g21
I00
sbsF79
g1
(g18
g3
NtRp4709
(dp4710
g21
I00
sbssbsF1010
g1
(g18
g3
NtRp4711
(dp4712
g21
I00
sbsF1013.1
g1
(g18
g3
NtRp4713
(dp4714
g21
I00
sbsF1009.4
g1
(g18
g3
NtRp4715
(dp4716
g21
I00
sbsF1006.3
g1
(g18
g3
NtRp4717
(dp4718
g21
I00
sbsF1005.3
g1
(g18
g3
NtRp4719
(dp4720
g21
I00
sbsF1012.1
g1
(g18
g3
NtRp4721
(dp4722
g21
I00
sbssbsF24.899999999999999
g1
(g7
g3
NtRp4723
(dp4724
g10
g67
sg12
(dp4725
F1008.4
g1
(g18
g3
NtRp4726
(dp4727
g21
I00
sbsF1011.1
g1
(g18
g3
NtRp4728
(dp4729
g21
I00
sbsF1001.9
g1
(g18
g3
NtRp4730
(dp4731
g21
I01
sbsF1009.7
g1
(g18
g3
NtRp4732
(dp4733
g21
I00
sbsF1008.7
g1
(g18
g3
NtRp4734
(dp4735
g21
I00
sbsF1006.7
g1
(g18
g3
NtRp4736
(dp4737
g21
I01
sbsF1004.6
g1
(g7
g3
NtRp4738
(dp4739
g10
g16
sg12
(dp4740
F34
g1
(g18
g3
NtRp4741
(dp4742
g21
I00
sbsF37
g1
(g18
g3
NtRp4743
(dp4744
g21
I00
sbssbsF1009.4
g1
(g18
g3
NtRp4745
(dp4746
g21
I00
sbsF1005
g1
(g7
g3
NtRp4747
(dp4748
g10
g16
sg12
(dp4749
F34
g1
(g18
g3
NtRp4750
(dp4751
g21
I00
sbsF37
g1
(g18
g3
NtRp4752
(dp4753
g21
I00
sbssbsF1006
g1
(g18
g3
NtRp4754
(dp4755
g21
I00
sbsF1007
g1
(g7
g3
NtRp4756
(dp4757
g10
g16
sg12
(dp4758
F32
g1
(g18
g3
NtRp4759
(dp4760
g21
I00
sbsF33
g1
(g18
g3
NtRp4761
(dp4762
g21
I00
sbsF34
g1
(g18
g3
NtRp4763
(dp4764
g21
I00
sbsF31
g1
(g18
g3
NtRp4765
(dp4766
g21
I00
sbssbsF1008
g1
(g18
g3
NtRp4767
(dp4768
g21
I00
sbsF1009
g1
(g18
g3
NtRp4769
(dp4770
g21
I00
sbsF1010
g1
(g18
g3
NtRp4771
(dp4772
g21
I00
sbsF1005.6
g1
(g18
g3
NtRp4773
(dp4774
g21
I00
sbsF1006.3
g1
(g18
g3
NtRp4775
(dp4776
g21
I01
sbsF1007.3
g1
(g7
g3
NtRp4777
(dp4778
g10
g16
sg12
(dp4779
F32
g1
(g18
g3
NtRp4780
(dp4781
g21
I01
sbsF33
g1
(g18
g3
NtRp4782
(dp4783
g21
I01
sbsF38
g1
(g18
g3
NtRp4784
(dp4785
g21
I01
sbssbsF1003.6
g1
(g18
g3
NtRp4786
(dp4787
g21
I00
sbssbsF17.699999999999999
g1
(g7
g3
NtRp4788
(dp4789
g10
g16
sg12
(dp4790
F65
g1
(g18
g3
NtRp4791
(dp4792
g21
I00
sbsF66
g1
(g18
g3
NtRp4793
(dp4794
g21
I00
sbsF68
g1
(g18
g3
NtRp4795
(dp4796
g21
I00
sbsF69
g1
(g18
g3
NtRp4797
(dp4798
g21
I00
sbsF70
g1
(g18
g3
NtRp4799
(dp4800
g21
I00
sbsF72
g1
(g18
g3
NtRp4801
(dp4802
g21
I00
sbsF74
g1
(g18
g3
NtRp4803
(dp4804
g21
I00
sbsF75
g1
(g18
g3
NtRp4805
(dp4806
g21
I00
sbsF49
g1
(g18
g3
NtRp4807
(dp4808
g21
I00
sbsF52
g1
(g18
g3
NtRp4809
(dp4810
g21
I00
sbsF53
g1
(g18
g3
NtRp4811
(dp4812
g21
I00
sbsF55
g1
(g18
g3
NtRp4813
(dp4814
g21
I01
sbsF56
g1
(g18
g3
NtRp4815
(dp4816
g21
I00
sbsF58
g1
(g18
g3
NtRp4817
(dp4818
g21
I01
sbsF61
g1
(g18
g3
NtRp4819
(dp4820
g21
I00
sbssbsF13.199999999999999
g1
(g18
g3
NtRp4821
(dp4822
g21
I00
sbsF13.1
g1
(g18
g3
NtRp4823
(dp4824
g21
I00
sbsF17.600000000000001
g1
(g7
g3
NtRp4825
(dp4826
g10
g16
sg12
(dp4827
F46
g1
(g7
g3
NtRp4828
(dp4829
g10
g67
sg12
(dp4830
F1008.7
g1
(g18
g3
NtRp4831
(dp4832
g21
I00
sbssbsF50
g1
(g18
g3
NtRp4833
(dp4834
g21
I00
sbsF53
g1
(g18
g3
NtRp4835
(dp4836
g21
I00
sbsF54
g1
(g18
g3
NtRp4837
(dp4838
g21
I00
sbsF55
g1
(g18
g3
NtRp4839
(dp4840
g21
I01
sbsF56
g1
(g18
g3
NtRp4841
(dp4842
g21
I01
sbsF57
g1
(g18
g3
NtRp4843
(dp4844
g21
I01
sbsF58
g1
(g18
g3
NtRp4845
(dp4846
g21
I00
sbsF59
g1
(g18
g3
NtRp4847
(dp4848
g21
I00
sbsF61
g1
(g18
g3
NtRp4849
(dp4850
g21
I00
sbsF62
g1
(g18
g3
NtRp4851
(dp4852
g21
I00
sbsF64
g1
(g18
g3
NtRp4853
(dp4854
g21
I00
sbsF65
g1
(g18
g3
NtRp4855
(dp4856
g21
I00
sbsF66
g1
(g18
g3
NtRp4857
(dp4858
g21
I00
sbsF67
g1
(g18
g3
NtRp4859
(dp4860
g21
I00
sbsF68
g1
(g18
g3
NtRp4861
(dp4862
g21
I00
sbsF74
g1
(g18
g3
NtRp4863
(dp4864
g21
I00
sbsF76
g1
(g18
g3
NtRp4865
(dp4866
g21
I00
sbsF77
g1
(g18
g3
NtRp4867
(dp4868
g21
I00
sbsF78
g1
(g18
g3
NtRp4869
(dp4870
g21
I00
sbsF81
g1
(g18
g3
NtRp4871
(dp4872
g21
I00
sbsF83
g1
(g18
g3
NtRp4873
(dp4874
g21
I00
sbssbsF27.300000000000001
g1
(g7
g3
NtRp4875
(dp4876
g10
g67
sg12
(dp4877
F1004.3
g1
(g18
g3
NtRp4878
(dp4879
g21
I01
sbsF1005.6
g1
(g18
g3
NtRp4880
(dp4881
g21
I00
sbsF1003.9
g1
(g18
g3
NtRp4882
(dp4883
g21
I01
sbsF1001.2
g1
(g18
g3
NtRp4884
(dp4885
g21
I00
sbsF1006.7
g1
(g7
g3
NtRp4886
(dp4887
g10
g16
sg12
(dp4888
F27
g1
(g18
g3
NtRp4889
(dp4890
g21
I00
sbsF35
g1
(g18
g3
NtRp4891
(dp4892
g21
I00
sbssbsF1002.6
g1
(g18
g3
NtRp4893
(dp4894
g21
I01
sbsF1000.9
g1
(g18
g3
NtRp4895
(dp4896
g21
I00
sbsF1005
g1
(g7
g3
NtRp4897
(dp4898
g10
g16
sg12
(dp4899
F32
g1
(g18
g3
NtRp4900
(dp4901
g21
I00
sbsF25
g1
(g18
g3
NtRp4902
(dp4903
g21
I00
sbsF35
g1
(g18
g3
NtRp4904
(dp4905
g21
I00
sbsF28
g1
(g18
g3
NtRp4906
(dp4907
g21
I00
sbsF30
g1
(g18
g3
NtRp4908
(dp4909
g21
I00
sbssbsF1006
g1
(g18
g3
NtRp4910
(dp4911
g21
I00
sbsF1007
g1
(g18
g3
NtRp4912
(dp4913
g21
I00
sbsF1004.6
g1
(g7
g3
NtRp4914
(dp4915
g10
g16
sg12
(dp4916
F24
g1
(g18
g3
NtRp4917
(dp4918
g21
I01
sbsF29
g1
(g18
g3
NtRp4919
(dp4920
g21
I01
sbssbsF1006.3
g1
(g18
g3
NtRp4921
(dp4922
g21
I00
sbsF1002.3
g1
(g18
g3
NtRp4923
(dp4924
g21
I00
sbsF1005.3
g1
(g18
g3
NtRp4925
(dp4926
g21
I01
sbsF1001.6
g1
(g18
g3
NtRp4927
(dp4928
g21
I00
sbsF1003.6
g1
(g7
g3
NtRp4929
(dp4930
g10
g16
sg12
(dp4931
F32
g1
(g18
g3
NtRp4932
(dp4933
g21
I00
sbsF28
g1
(g18
g3
NtRp4934
(dp4935
g21
I00
sbssbssbsF28.199999999999999
g1
(g7
g3
NtRp4936
(dp4937
g10
g16
sg12
(dp4938
F32
g1
(g18
g3
NtRp4939
(dp4940
g21
I00
sbsF33
g1
(g18
g3
NtRp4941
(dp4942
g21
I01
sbsF34
g1
(g18
g3
NtRp4943
(dp4944
g21
I00
sbsF20
g1
(g18
g3
NtRp4945
(dp4946
g21
I01
sbsF21
g1
(g18
g3
NtRp4947
(dp4948
g21
I00
sbsF24
g1
(g18
g3
NtRp4949
(dp4950
g21
I00
sbsF25
g1
(g18
g3
NtRp4951
(dp4952
g21
I00
sbsF26
g1
(g18
g3
NtRp4953
(dp4954
g21
I01
sbsF27
g1
(g7
g3
NtRp4955
(dp4956
g10
g67
sg12
(dp4957
F1004.6
g1
(g18
g3
NtRp4958
(dp4959
g21
I00
sbsF1002.6
g1
(g18
g3
NtRp4960
(dp4961
g21
I00
sbssbsF29
g1
(g18
g3
NtRp4962
(dp4963
g21
I00
sbsF31
g1
(g18
g3
NtRp4964
(dp4965
g21
I00
sbssbsF23.699999999999999
g1
(g7
g3
NtRp4966
(dp4967
g10
g16
sg12
(dp4968
F32
g1
(g18
g3
NtRp4969
(dp4970
g21
I00
sbsF35
g1
(g18
g3
NtRp4971
(dp4972
g21
I00
sbsF36
g1
(g18
g3
NtRp4973
(dp4974
g21
I00
sbsF37
g1
(g18
g3
NtRp4975
(dp4976
g21
I00
sbsF39
g1
(g18
g3
NtRp4977
(dp4978
g21
I00
sbsF42
g1
(g18
g3
NtRp4979
(dp4980
g21
I00
sbsF43
g1
(g18
g3
NtRp4981
(dp4982
g21
I01
sbsF44
g1
(g7
g3
NtRp4983
(dp4984
g10
g67
sg12
(dp4985
F1006.3
g1
(g18
g3
NtRp4986
(dp4987
g21
I00
sbsF1011.7
g1
(g18
g3
NtRp4988
(dp4989
g21
I00
sbssbsF45
g1
(g18
g3
NtRp4990
(dp4991
g21
I00
sbsF47
g1
(g18
g3
NtRp4992
(dp4993
g21
I00
sbsF48
g1
(g18
g3
NtRp4994
(dp4995
g21
I00
sbsF49
g1
(g18
g3
NtRp4996
(dp4997
g21
I00
sbsF50
g1
(g18
g3
NtRp4998
(dp4999
g21
I00
sbsF52
g1
(g18
g3
NtRp5000
(dp5001
g21
I00
sbsF28
g1
(g18
g3
NtRp5002
(dp5003
g21
I00
sbsF31
g1
(g18
g3
NtRp5004
(dp5005
g21
I00
sbssbsF17.399999999999999
g1
(g7
g3
NtRp5006
(dp5007
g10
g67
sg12
(dp5008
F1007.3
g1
(g18
g3
NtRp5009
(dp5010
g21
I00
sbsF1013.1
g1
(g18
g3
NtRp5011
(dp5012
g21
I00
sbsF1010.4
g1
(g18
g3
NtRp5013
(dp5014
g21
I00
sbsF1009.7
g1
(g18
g3
NtRp5015
(dp5016
g21
I00
sbsF1008.7
g1
(g18
g3
NtRp5017
(dp5018
g21
I00
sbsF1007.7
g1
(g7
g3
NtRp5019
(dp5020
g10
g16
sg12
(dp5021
F66
g1
(g18
g3
NtRp5022
(dp5023
g21
I00
sbsF60
g1
(g18
g3
NtRp5024
(dp5025
g21
I00
sbssbsF1008.4
g1
(g7
g3
NtRp5026
(dp5027
g10
g16
sg12
(dp5028
F73
g1
(g18
g3
NtRp5029
(dp5030
g21
I00
sbsF57
g1
(g18
g3
NtRp5031
(dp5032
g21
I00
sbssbsF1011.4
g1
(g18
g3
NtRp5033
(dp5034
g21
I00
sbsF1006.7
g1
(g18
g3
NtRp5035
(dp5036
g21
I00
sbsF1011.1
g1
(g18
g3
NtRp5037
(dp5038
g21
I00
sbsF1012.1
g1
(g18
g3
NtRp5039
(dp5040
g21
I00
sbsF1009
g1
(g18
g3
NtRp5041
(dp5042
g21
I00
sbsF1010
g1
(g18
g3
NtRp5043
(dp5044
g21
I00
sbsF1005.6
g1
(g18
g3
NtRp5045
(dp5046
g21
I00
sbsF1009.4
g1
(g18
g3
NtRp5047
(dp5048
g21
I00
sbsF1005.3
g1
(g18
g3
NtRp5049
(dp5050
g21
I00
sbsF1006.3
g1
(g18
g3
NtRp5051
(dp5052
g21
I01
sbssbsF21.699999999999999
g1
(g7
g3
NtRp5053
(dp5054
g10
g16
sg12
(dp5055
F64
g1
(g18
g3
NtRp5056
(dp5057
g21
I00
sbsF34
g1
(g18
g3
NtRp5058
(dp5059
g21
I00
sbsF35
g1
(g18
g3
NtRp5060
(dp5061
g21
I00
sbsF38
g1
(g18
g3
NtRp5062
(dp5063
g21
I00
sbsF39
g1
(g18
g3
NtRp5064
(dp5065
g21
I00
sbsF40
g1
(g18
g3
NtRp5066
(dp5067
g21
I00
sbsF41
g1
(g18
g3
NtRp5068
(dp5069
g21
I00
sbsF44
g1
(g18
g3
NtRp5070
(dp5071
g21
I00
sbsF66
g1
(g18
g3
NtRp5072
(dp5073
g21
I00
sbsF46
g1
(g18
g3
NtRp5074
(dp5075
g21
I01
sbsF49
g1
(g18
g3
NtRp5076
(dp5077
g21
I01
sbsF50
g1
(g18
g3
NtRp5078
(dp5079
g21
I00
sbsF51
g1
(g7
g3
NtRp5080
(dp5081
g10
g67
sg12
(dp5082
F1007.3
g1
(g18
g3
NtRp5083
(dp5084
g21
I00
sbsF1006
g1
(g18
g3
NtRp5085
(dp5086
g21
I00
sbsF1011.7
g1
(g18
g3
NtRp5087
(dp5088
g21
I00
sbsF1007
g1
(g18
g3
NtRp5089
(dp5090
g21
I00
sbssbsF53
g1
(g18
g3
NtRp5091
(dp5092
g21
I01
sbsF54
g1
(g18
g3
NtRp5093
(dp5094
g21
I00
sbsF55
g1
(g18
g3
NtRp5095
(dp5096
g21
I00
sbsF60
g1
(g18
g3
NtRp5097
(dp5098
g21
I00
sbsF61
g1
(g18
g3
NtRp5099
(dp5100
g21
I00
sbssbsF23.399999999999999
g1
(g7
g3
NtRp5101
(dp5102
g10
g16
sg12
(dp5103
F36
g1
(g18
g3
NtRp5104
(dp5105
g21
I00
sbsF37
g1
(g18
g3
NtRp5106
(dp5107
g21
I00
sbsF38
g1
(g18
g3
NtRp5108
(dp5109
g21
I00
sbsF39
g1
(g7
g3
NtRp5110
(dp5111
g10
g67
sg12
(dp5112
F1007.3
g1
(g18
g3
NtRp5113
(dp5114
g21
I00
sbsF1003.9
g1
(g18
g3
NtRp5115
(dp5116
g21
I00
sbsF1006.3
g1
(g18
g3
NtRp5117
(dp5118
g21
I00
sbssbsF40
g1
(g18
g3
NtRp5119
(dp5120
g21
I01
sbsF41
g1
(g18
g3
NtRp5121
(dp5122
g21
I00
sbsF42
g1
(g18
g3
NtRp5123
(dp5124
g21
I01
sbsF43
g1
(g7
g3
NtRp5125
(dp5126
g10
g67
sg12
(dp5127
F1008
g1
(g18
g3
NtRp5128
(dp5129
g21
I00
sbsF1006.3
g1
(g18
g3
NtRp5130
(dp5131
g21
I00
sbsF1010.4
g1
(g18
g3
NtRp5132
(dp5133
g21
I00
sbssbsF44
g1
(g7
g3
NtRp5134
(dp5135
g10
g67
sg12
(dp5136
F1008
g1
(g18
g3
NtRp5137
(dp5138
g21
I01
sbsF1008.4
g1
(g18
g3
NtRp5139
(dp5140
g21
I01
sbsF1007.7
g1
(g18
g3
NtRp5141
(dp5142
g21
I01
sbssbsF45
g1
(g18
g3
NtRp5143
(dp5144
g21
I00
sbsF46
g1
(g18
g3
NtRp5145
(dp5146
g21
I00
sbsF47
g1
(g18
g3
NtRp5147
(dp5148
g21
I00
sbsF49
g1
(g7
g3
NtRp5149
(dp5150
g10
g67
sg12
(dp5151
F1008
g1
(g18
g3
NtRp5152
(dp5153
g21
I00
sbsF1009.4
g1
(g18
g3
NtRp5154
(dp5155
g21
I00
sbssbsF50
g1
(g18
g3
NtRp5156
(dp5157
g21
I00
sbsF51
g1
(g18
g3
NtRp5158
(dp5159
g21
I00
sbsF52
g1
(g18
g3
NtRp5160
(dp5161
g21
I00
sbsF31
g1
(g18
g3
NtRp5162
(dp5163
g21
I00
sbssbsF28.600000000000001
g1
(g7
g3
NtRp5164
(dp5165
g10
g67
sg12
(dp5166
F1006.3
g1
(g18
g3
NtRp5167
(dp5168
g21
I00
sbsF1005.6
g1
(g18
g3
NtRp5169
(dp5170
g21
I00
sbsF1001.9
g1
(g18
g3
NtRp5171
(dp5172
g21
I01
sbsF1001.2
g1
(g18
g3
NtRp5173
(dp5174
g21
I01
sbsF1001.6
g1
(g7
g3
NtRp5175
(dp5176
g10
g16
sg12
(dp5177
F26
g1
(g18
g3
NtRp5178
(dp5179
g21
I00
sbsF28
g1
(g18
g3
NtRp5180
(dp5181
g21
I00
sbssbsF1002.9
g1
(g18
g3
NtRp5182
(dp5183
g21
I01
sbsF1005
g1
(g7
g3
NtRp5184
(dp5185
g10
g16
sg12
(dp5186
F18
g1
(g18
g3
NtRp5187
(dp5188
g21
I00
sbsF21
g1
(g18
g3
NtRp5189
(dp5190
g21
I00
sbssbsF1006
g1
(g18
g3
NtRp5191
(dp5192
g21
I00
sbsF1004.6
g1
(g7
g3
NtRp5193
(dp5194
g10
g16
sg12
(dp5195
F19
g1
(g18
g3
NtRp5196
(dp5197
g21
I01
sbsF27
g1
(g18
g3
NtRp5198
(dp5199
g21
I01
sbsF20
g1
(g18
g3
NtRp5200
(dp5201
g21
I01
sbssbsF1003.9
g1
(g18
g3
NtRp5202
(dp5203
g21
I01
sbsF1004.3
g1
(g18
g3
NtRp5204
(dp5205
g21
I01
sbsF1005.3
g1
(g18
g3
NtRp5206
(dp5207
g21
I00
sbssbsF21.899999999999999
g1
(g7
g3
NtRp5208
(dp5209
g10
g16
sg12
(dp5210
F33
g1
(g18
g3
NtRp5211
(dp5212
g21
I00
sbsF34
g1
(g18
g3
NtRp5213
(dp5214
g21
I00
sbsF35
g1
(g18
g3
NtRp5215
(dp5216
g21
I00
sbsF38
g1
(g18
g3
NtRp5217
(dp5218
g21
I00
sbsF39
g1
(g18
g3
NtRp5219
(dp5220
g21
I00
sbsF41
g1
(g18
g3
NtRp5221
(dp5222
g21
I00
sbsF43
g1
(g18
g3
NtRp5223
(dp5224
g21
I00
sbsF44
g1
(g7
g3
NtRp5225
(dp5226
g10
g67
sg12
(dp5227
F1003.3
g1
(g18
g3
NtRp5228
(dp5229
g21
I00
sbsF1009.4
g1
(g18
g3
NtRp5230
(dp5231
g21
I00
sbsF1008.7
g1
(g18
g3
NtRp5232
(dp5233
g21
I00
sbssbsF45
g1
(g7
g3
NtRp5234
(dp5235
g10
g67
sg12
(dp5236
F1007.3
g1
(g18
g3
NtRp5237
(dp5238
g21
I00
sbsF1003.6
g1
(g18
g3
NtRp5239
(dp5240
g21
I00
sbsF1008.4
g1
(g18
g3
NtRp5241
(dp5242
g21
I00
sbssbsF47
g1
(g18
g3
NtRp5243
(dp5244
g21
I01
sbsF48
g1
(g18
g3
NtRp5245
(dp5246
g21
I01
sbsF50
g1
(g7
g3
NtRp5247
(dp5248
g10
g67
sg12
(dp5249
F1007.7
g1
(g18
g3
NtRp5250
(dp5251
g21
I00
sbsF1007
g1
(g18
g3
NtRp5252
(dp5253
g21
I00
sbssbsF51
g1
(g18
g3
NtRp5254
(dp5255
g21
I00
sbsF52
g1
(g7
g3
NtRp5256
(dp5257
g10
g67
sg12
(dp5258
F1010.4
g1
(g18
g3
NtRp5259
(dp5260
g21
I00
sbsF1006
g1
(g18
g3
NtRp5261
(dp5262
g21
I00
sbssbsF53
g1
(g7
g3
NtRp5263
(dp5264
g10
g67
sg12
(dp5265
F1010
g1
(g18
g3
NtRp5266
(dp5267
g21
I01
sbsF1007.7
g1
(g18
g3
NtRp5268
(dp5269
g21
I01
sbsF1006.7
g1
(g18
g3
NtRp5270
(dp5271
g21
I01
sbssbsF56
g1
(g18
g3
NtRp5272
(dp5273
g21
I00
sbsF57
g1
(g7
g3
NtRp5274
(dp5275
g10
g67
sg12
(dp5276
F1010
g1
(g18
g3
NtRp5277
(dp5278
g21
I01
sbsF1010.4
g1
(g18
g3
NtRp5279
(dp5280
g21
I01
sbsF1007.7
g1
(g18
g3
NtRp5281
(dp5282
g21
I01
sbssbsF58
g1
(g18
g3
NtRp5283
(dp5284
g21
I01
sbsF59
g1
(g18
g3
NtRp5285
(dp5286
g21
I01
sbsF60
g1
(g18
g3
NtRp5287
(dp5288
g21
I00
sbssbsF12.5
g1
(g18
g3
NtRp5289
(dp5290
g21
I00
sbsF29.399999999999999
g1
(g7
g3
NtRp5291
(dp5292
g10
g67
sg12
(dp5293
F1003.6
g1
(g18
g3
NtRp5294
(dp5295
g21
I00
sbsF1001.2
g1
(g18
g3
NtRp5296
(dp5297
g21
I01
sbsF1002.6
g1
(g18
g3
NtRp5298
(dp5299
g21
I00
sbsF1002.9
g1
(g18
g3
NtRp5300
(dp5301
g21
I00
sbsF1005
g1
(g7
g3
NtRp5302
(dp5303
g10
g16
sg12
(dp5304
F16
g1
(g18
g3
NtRp5305
(dp5306
g21
I00
sbsF21
g1
(g18
g3
NtRp5307
(dp5308
g21
I00
sbssbsF1004.6
g1
(g18
g3
NtRp5309
(dp5310
g21
I01
sbsF1003.3
g1
(g7
g3
NtRp5311
(dp5312
g10
g16
sg12
(dp5313
F25
g1
(g18
g3
NtRp5314
(dp5315
g21
I00
sbsF26
g1
(g18
g3
NtRp5316
(dp5317
g21
I00
sbssbssbsF15.800000000000001
g1
(g7
g3
NtRp5318
(dp5319
g10
g67
sg12
(dp5320
F1006.3
g1
(g18
g3
NtRp5321
(dp5322
g21
I00
sbsF1008.4
g1
(g18
g3
NtRp5323
(dp5324
g21
I00
sbsF1011.1
g1
(g18
g3
NtRp5325
(dp5326
g21
I00
sbsF1012.4
g1
(g18
g3
NtRp5327
(dp5328
g21
I00
sbsF1008.7
g1
(g18
g3
NtRp5329
(dp5330
g21
I00
sbsF1010.7
g1
(g18
g3
NtRp5331
(dp5332
g21
I00
sbsF1006.7
g1
(g18
g3
NtRp5333
(dp5334
g21
I00
sbsF1010.4
g1
(g18
g3
NtRp5335
(dp5336
g21
I00
sbsF1011.4
g1
(g18
g3
NtRp5337
(dp5338
g21
I00
sbsF1007.7
g1
(g18
g3
NtRp5339
(dp5340
g21
I00
sbsF1006
g1
(g18
g3
NtRp5341
(dp5342
g21
I00
sbsF1007
g1
(g18
g3
NtRp5343
(dp5344
g21
I01
sbsF1008
g1
(g18
g3
NtRp5345
(dp5346
g21
I00
sbsF1009
g1
(g18
g3
NtRp5347
(dp5348
g21
I00
sbsF1010
g1
(g18
g3
NtRp5349
(dp5350
g21
I00
sbsF1005.6
g1
(g18
g3
NtRp5351
(dp5352
g21
I01
sbsF1007.3
g1
(g18
g3
NtRp5353
(dp5354
g21
I01
sbsF1011.7
g1
(g18
g3
NtRp5355
(dp5356
g21
I00
sbssbsF20.800000000000001
g1
(g7
g3
NtRp5357
(dp5358
g10
g16
sg12
(dp5359
F32
g1
(g18
g3
NtRp5360
(dp5361
g21
I00
sbsF67
g1
(g18
g3
NtRp5362
(dp5363
g21
I00
sbsF36
g1
(g18
g3
NtRp5364
(dp5365
g21
I00
sbsF70
g1
(g18
g3
NtRp5366
(dp5367
g21
I00
sbsF40
g1
(g7
g3
NtRp5368
(dp5369
g10
g67
sg12
(dp5370
F1009
g1
(g18
g3
NtRp5371
(dp5372
g21
I00
sbsF1007
g1
(g18
g3
NtRp5373
(dp5374
g21
I00
sbssbsF41
g1
(g18
g3
NtRp5375
(dp5376
g21
I00
sbsF42
g1
(g18
g3
NtRp5377
(dp5378
g21
I00
sbsF44
g1
(g18
g3
NtRp5379
(dp5380
g21
I00
sbsF45
g1
(g18
g3
NtRp5381
(dp5382
g21
I00
sbsF46
g1
(g18
g3
NtRp5383
(dp5384
g21
I00
sbsF47
g1
(g18
g3
NtRp5385
(dp5386
g21
I00
sbsF48
g1
(g7
g3
NtRp5387
(dp5388
g10
g67
sg12
(dp5389
F1010
g1
(g18
g3
NtRp5390
(dp5391
g21
I00
sbsF1004.6
g1
(g18
g3
NtRp5392
(dp5393
g21
I00
sbsF1007.7
g1
(g18
g3
NtRp5394
(dp5395
g21
I00
sbssbsF49
g1
(g7
g3
NtRp5396
(dp5397
g10
g67
sg12
(dp5398
F1010
g1
(g18
g3
NtRp5399
(dp5400
g21
I00
sbsF1009.4
g1
(g18
g3
NtRp5401
(dp5402
g21
I00
sbsF1009.7
g1
(g18
g3
NtRp5403
(dp5404
g21
I00
sbssbsF50
g1
(g18
g3
NtRp5405
(dp5406
g21
I00
sbsF53
g1
(g18
g3
NtRp5407
(dp5408
g21
I00
sbsF54
g1
(g18
g3
NtRp5409
(dp5410
g21
I00
sbsF55
g1
(g7
g3
NtRp5411
(dp5412
g10
g67
sg12
(dp5413
F1008
g1
(g18
g3
NtRp5414
(dp5415
g21
I01
sbsF1010
g1
(g18
g3
NtRp5416
(dp5417
g21
I01
sbsF1006
g1
(g18
g3
NtRp5418
(dp5419
g21
I01
sbsF1007
g1
(g18
g3
NtRp5420
(dp5421
g21
I01
sbssbsF56
g1
(g18
g3
NtRp5422
(dp5423
g21
I00
sbsF59
g1
(g18
g3
NtRp5424
(dp5425
g21
I00
sbsF60
g1
(g18
g3
NtRp5426
(dp5427
g21
I00
sbsF63
g1
(g18
g3
NtRp5428
(dp5429
g21
I00
sbssbsF26.100000000000001
g1
(g7
g3
NtRp5430
(dp5431
g10
g67
sg12
(dp5432
F1007.3
g1
(g18
g3
NtRp5433
(dp5434
g21
I00
sbsF1003.6
g1
(g18
g3
NtRp5435
(dp5436
g21
I00
sbsF1004.3
g1
(g7
g3
NtRp5437
(dp5438
g10
g16
sg12
(dp5439
F32
g1
(g18
g3
NtRp5440
(dp5441
g21
I00
sbsF34
g1
(g18
g3
NtRp5442
(dp5443
g21
I00
sbsF29
g1
(g18
g3
NtRp5444
(dp5445
g21
I00
sbsF37
g1
(g18
g3
NtRp5446
(dp5447
g21
I00
sbssbsF1003.9
g1
(g7
g3
NtRp5448
(dp5449
g10
g16
sg12
(dp5450
F30
g1
(g18
g3
NtRp5451
(dp5452
g21
I00
sbsF31
g1
(g18
g3
NtRp5453
(dp5454
g21
I00
sbssbsF1006.7
g1
(g18
g3
NtRp5455
(dp5456
g21
I00
sbsF1007.7
g1
(g18
g3
NtRp5457
(dp5458
g21
I00
sbsF1000.9
g1
(g18
g3
NtRp5459
(dp5460
g21
I01
sbsF1008.4
g1
(g18
g3
NtRp5461
(dp5462
g21
I00
sbsF1005
g1
(g7
g3
NtRp5463
(dp5464
g10
g16
sg12
(dp5465
F25
g1
(g18
g3
NtRp5466
(dp5467
g21
I01
sbsF28
g1
(g18
g3
NtRp5468
(dp5469
g21
I01
sbsF31
g1
(g18
g3
NtRp5470
(dp5471
g21
I01
sbssbsF1006
g1
(g18
g3
NtRp5472
(dp5473
g21
I00
sbsF1007
g1
(g18
g3
NtRp5474
(dp5475
g21
I00
sbsF1008
g1
(g18
g3
NtRp5476
(dp5477
g21
I00
sbsF1009
g1
(g18
g3
NtRp5478
(dp5479
g21
I00
sbsF1005.6
g1
(g18
g3
NtRp5480
(dp5481
g21
I01
sbsF1003.3
g1
(g18
g3
NtRp5482
(dp5483
g21
I01
sbsF1006.3
g1
(g7
g3
NtRp5484
(dp5485
g10
g16
sg12
(dp5486
F35
g1
(g18
g3
NtRp5487
(dp5488
g21
I01
sbsF20
g1
(g18
g3
NtRp5489
(dp5490
g21
I01
sbsF21
g1
(g18
g3
NtRp5491
(dp5492
g21
I01
sbssbsF1005.3
g1
(g7
g3
NtRp5493
(dp5494
g10
g16
sg12
(dp5495
F24
g1
(g18
g3
NtRp5496
(dp5497
g21
I00
sbsF34
g1
(g18
g3
NtRp5498
(dp5499
g21
I00
sbsF28
g1
(g18
g3
NtRp5500
(dp5501
g21
I00
sbsF31
g1
(g18
g3
NtRp5502
(dp5503
g21
I00
sbssbssbsF19.800000000000001
g1
(g7
g3
NtRp5504
(dp5505
g10
g16
sg12
(dp5506
F64
g1
(g18
g3
NtRp5507
(dp5508
g21
I00
sbsF65
g1
(g18
g3
NtRp5509
(dp5510
g21
I00
sbsF43
g1
(g7
g3
NtRp5511
(dp5512
g10
g67
sg12
(dp5513
F1009.4
g1
(g18
g3
NtRp5514
(dp5515
g21
I00
sbsF1009.7
g1
(g18
g3
NtRp5516
(dp5517
g21
I00
sbsF1006.7
g1
(g18
g3
NtRp5518
(dp5519
g21
I00
sbssbsF44
g1
(g7
g3
NtRp5520
(dp5521
g10
g67
sg12
(dp5522
F1010
g1
(g18
g3
NtRp5523
(dp5524
g21
I00
sbsF1006
g1
(g18
g3
NtRp5525
(dp5526
g21
I00
sbssbsF46
g1
(g18
g3
NtRp5527
(dp5528
g21
I00
sbsF48
g1
(g7
g3
NtRp5529
(dp5530
g10
g67
sg12
(dp5531
F1008.7
g1
(g18
g3
NtRp5532
(dp5533
g21
I00
sbsF1006
g1
(g18
g3
NtRp5534
(dp5535
g21
I00
sbssbsF49
g1
(g18
g3
NtRp5536
(dp5537
g21
I00
sbsF50
g1
(g18
g3
NtRp5538
(dp5539
g21
I00
sbsF51
g1
(g18
g3
NtRp5540
(dp5541
g21
I01
sbsF52
g1
(g18
g3
NtRp5542
(dp5543
g21
I01
sbsF53
g1
(g18
g3
NtRp5544
(dp5545
g21
I00
sbsF54
g1
(g18
g3
NtRp5546
(dp5547
g21
I00
sbsF55
g1
(g18
g3
NtRp5548
(dp5549
g21
I01
sbsF56
g1
(g18
g3
NtRp5550
(dp5551
g21
I00
sbsF57
g1
(g18
g3
NtRp5552
(dp5553
g21
I01
sbsF58
g1
(g18
g3
NtRp5554
(dp5555
g21
I00
sbsF59
g1
(g18
g3
NtRp5556
(dp5557
g21
I00
sbsF62
g1
(g18
g3
NtRp5558
(dp5559
g21
I00
sbssbsF15.199999999999999
g1
(g18
g3
NtRp5560
(dp5561
g21
I00
sbsF20.5
g1
(g7
g3
NtRp5562
(dp5563
g10
g16
sg12
(dp5564
F37
g1
(g18
g3
NtRp5565
(dp5566
g21
I00
sbsF38
g1
(g18
g3
NtRp5567
(dp5568
g21
I01
sbsF71
g1
(g18
g3
NtRp5569
(dp5570
g21
I00
sbsF40
g1
(g18
g3
NtRp5571
(dp5572
g21
I00
sbsF41
g1
(g18
g3
NtRp5573
(dp5574
g21
I00
sbsF43
g1
(g18
g3
NtRp5575
(dp5576
g21
I00
sbsF48
g1
(g18
g3
NtRp5577
(dp5578
g21
I00
sbsF50
g1
(g7
g3
NtRp5579
(dp5580
g10
g67
sg12
(dp5581
F1004.3
g1
(g18
g3
NtRp5582
(dp5583
g21
I00
sbsF1009.7
g1
(g18
g3
NtRp5584
(dp5585
g21
I00
sbssbsF51
g1
(g18
g3
NtRp5586
(dp5587
g21
I00
sbsF52
g1
(g18
g3
NtRp5588
(dp5589
g21
I00
sbsF54
g1
(g18
g3
NtRp5590
(dp5591
g21
I01
sbsF55
g1
(g7
g3
NtRp5592
(dp5593
g10
g67
sg12
(dp5594
F1010
g1
(g18
g3
NtRp5595
(dp5596
g21
I00
sbsF1006
g1
(g18
g3
NtRp5597
(dp5598
g21
I00
sbssbsF56
g1
(g18
g3
NtRp5599
(dp5600
g21
I00
sbsF57
g1
(g18
g3
NtRp5601
(dp5602
g21
I00
sbsF58
g1
(g18
g3
NtRp5603
(dp5604
g21
I01
sbsF70
g1
(g18
g3
NtRp5605
(dp5606
g21
I00
sbsF61
g1
(g18
g3
NtRp5607
(dp5608
g21
I00
sbsF62
g1
(g18
g3
NtRp5609
(dp5610
g21
I00
sbssbsF24.199999999999999
g1
(g7
g3
NtRp5611
(dp5612
g10
g67
sg12
(dp5613
F1006.3
g1
(g18
g3
NtRp5614
(dp5615
g21
I00
sbsF1005.6
g1
(g18
g3
NtRp5616
(dp5617
g21
I00
sbsF1011.4
g1
(g18
g3
NtRp5618
(dp5619
g21
I00
sbsF1009.7
g1
(g18
g3
NtRp5620
(dp5621
g21
I00
sbsF1006.7
g1
(g18
g3
NtRp5622
(dp5623
g21
I00
sbsF1008.4
g1
(g18
g3
NtRp5624
(dp5625
g21
I00
sbsF1009.4
g1
(g18
g3
NtRp5626
(dp5627
g21
I00
sbsF1007.7
g1
(g18
g3
NtRp5628
(dp5629
g21
I00
sbsF1006
g1
(g18
g3
NtRp5630
(dp5631
g21
I00
sbsF1005
g1
(g18
g3
NtRp5632
(dp5633
g21
I01
sbsF1008
g1
(g18
g3
NtRp5634
(dp5635
g21
I00
sbsF1009
g1
(g18
g3
NtRp5636
(dp5637
g21
I00
sbsF1004.6
g1
(g18
g3
NtRp5638
(dp5639
g21
I00
sbsF1007.3
g1
(g7
g3
NtRp5640
(dp5641
g10
g16
sg12
(dp5642
F43
g1
(g18
g3
NtRp5643
(dp5644
g21
I00
sbssbsF1004.3
g1
(g18
g3
NtRp5645
(dp5646
g21
I01
sbsF1005.3
g1
(g7
g3
NtRp5647
(dp5648
g10
g16
sg12
(dp5649
F43
g1
(g18
g3
NtRp5650
(dp5651
g21
I00
sbsF39
g1
(g18
g3
NtRp5652
(dp5653
g21
I00
sbssbsF1007
g1
(g18
g3
NtRp5654
(dp5655
g21
I00
sbssbsF25.899999999999999
g1
(g7
g3
NtRp5656
(dp5657
g10
g16
sg12
(dp5658
F32
g1
(g7
g3
NtRp5659
(dp5660
g10
g67
sg12
(dp5661
F1005.3
g1
(g18
g3
NtRp5662
(dp5663
g21
I01
sbsF1001.2
g1
(g18
g3
NtRp5664
(dp5665
g21
I01
sbssbsF33
g1
(g18
g3
NtRp5666
(dp5667
g21
I00
sbsF34
g1
(g7
g3
NtRp5668
(dp5669
g10
g67
sg12
(dp5670
F1005.3
g1
(g18
g3
NtRp5671
(dp5672
g21
I00
sbsF1001.9
g1
(g18
g3
NtRp5673
(dp5674
g21
I00
sbsF1005
g1
(g18
g3
NtRp5675
(dp5676
g21
I00
sbssbsF35
g1
(g7
g3
NtRp5677
(dp5678
g10
g67
sg12
(dp5679
F1007.3
g1
(g18
g3
NtRp5680
(dp5681
g21
I00
sbsF1003.6
g1
(g18
g3
NtRp5682
(dp5683
g21
I00
sbsF1004.3
g1
(g18
g3
NtRp5684
(dp5685
g21
I00
sbssbsF36
g1
(g18
g3
NtRp5686
(dp5687
g21
I00
sbsF37
g1
(g18
g3
NtRp5688
(dp5689
g21
I00
sbsF38
g1
(g18
g3
NtRp5690
(dp5691
g21
I00
sbsF41
g1
(g18
g3
NtRp5692
(dp5693
g21
I00
sbsF42
g1
(g18
g3
NtRp5694
(dp5695
g21
I00
sbsF20
g1
(g18
g3
NtRp5696
(dp5697
g21
I01
sbsF22
g1
(g18
g3
NtRp5698
(dp5699
g21
I01
sbsF23
g1
(g18
g3
NtRp5700
(dp5701
g21
I01
sbsF25
g1
(g18
g3
NtRp5702
(dp5703
g21
I01
sbsF27
g1
(g18
g3
NtRp5704
(dp5705
g21
I00
sbsF28
g1
(g18
g3
NtRp5706
(dp5707
g21
I00
sbsF30
g1
(g7
g3
NtRp5708
(dp5709
g10
g67
sg12
(dp5710
F1004.3
g1
(g18
g3
NtRp5711
(dp5712
g21
I01
sbsF1006
g1
(g18
g3
NtRp5713
(dp5714
g21
I01
sbssbsF31
g1
(g18
g3
NtRp5715
(dp5716
g21
I01
sbssbsF28.800000000000001
g1
(g7
g3
NtRp5717
(dp5718
g10
g67
sg12
(dp5719
F1006.3
g1
(g18
g3
NtRp5720
(dp5721
g21
I00
sbsF1003.6
g1
(g7
g3
NtRp5722
(dp5723
g10
g16
sg12
(dp5724
F28
g1
(g18
g3
NtRp5725
(dp5726
g21
I00
sbsF29
g1
(g18
g3
NtRp5727
(dp5728
g21
I00
sbssbsF1003.9
g1
(g7
g3
NtRp5729
(dp5730
g10
g16
sg12
(dp5731
F28
g1
(g18
g3
NtRp5732
(dp5733
g21
I00
sbsF31
g1
(g18
g3
NtRp5734
(dp5735
g21
I00
sbssbsF1001.9
g1
(g18
g3
NtRp5736
(dp5737
g21
I00
sbsF1005
g1
(g18
g3
NtRp5738
(dp5739
g21
I01
sbsF1006
g1
(g18
g3
NtRp5740
(dp5741
g21
I00
sbsF1004.6
g1
(g18
g3
NtRp5742
(dp5743
g21
I01
sbsF1001.6
g1
(g7
g3
NtRp5744
(dp5745
g10
g16
sg12
(dp5746
F26
g1
(g18
g3
NtRp5747
(dp5748
g21
I01
sbsF27
g1
(g18
g3
NtRp5749
(dp5750
g21
I01
sbssbsF1004.3
g1
(g18
g3
NtRp5751
(dp5752
g21
I01
sbsF1005.3
g1
(g18
g3
NtRp5753
(dp5754
g21
I00
sbssbsF28.5
g1
(g7
g3
NtRp5755
(dp5756
g10
g67
sg12
(dp5757
F1005.6
g1
(g18
g3
NtRp5758
(dp5759
g21
I00
sbsF1001.2
g1
(g18
g3
NtRp5760
(dp5761
g21
I01
sbsF1002.6
g1
(g18
g3
NtRp5762
(dp5763
g21
I00
sbsF1003.9
g1
(g7
g3
NtRp5764
(dp5765
g10
g16
sg12
(dp5766
F20
g1
(g18
g3
NtRp5767
(dp5768
g21
I00
sbsF28
g1
(g18
g3
NtRp5769
(dp5770
g21
I00
sbssbsF1005
g1
(g18
g3
NtRp5771
(dp5772
g21
I01
sbsF1004.6
g1
(g7
g3
NtRp5773
(dp5774
g10
g16
sg12
(dp5775
F36
g1
(g18
g3
NtRp5776
(dp5777
g21
I00
sbsF21
g1
(g18
g3
NtRp5778
(dp5779
g21
I00
sbssbsF1006.3
g1
(g18
g3
NtRp5780
(dp5781
g21
I00
sbssbsF19.300000000000001
g1
(g7
g3
NtRp5782
(dp5783
g10
g67
sg12
(dp5784
F1010.4
g1
(g18
g3
NtRp5785
(dp5786
g21
I00
sbsF1011.1
g1
(g18
g3
NtRp5787
(dp5788
g21
I00
sbsF1008.4
g1
(g7
g3
NtRp5789
(dp5790
g10
g16
sg12
(dp5791
F57
g1
(g18
g3
NtRp5792
(dp5793
g21
I00
sbsF55
g1
(g18
g3
NtRp5794
(dp5795
g21
I00
sbssbsF1008.7
g1
(g18
g3
NtRp5796
(dp5797
g21
I00
sbsF1010.7
g1
(g18
g3
NtRp5798
(dp5799
g21
I00
sbsF1012.1
g1
(g18
g3
NtRp5800
(dp5801
g21
I00
sbsF1002.9
g1
(g18
g3
NtRp5802
(dp5803
g21
I01
sbsF1006.7
g1
(g18
g3
NtRp5804
(dp5805
g21
I00
sbsF1006
g1
(g18
g3
NtRp5806
(dp5807
g21
I00
sbsF1008
g1
(g18
g3
NtRp5808
(dp5809
g21
I00
sbsF1009
g1
(g18
g3
NtRp5810
(dp5811
g21
I00
sbsF1010
g1
(g7
g3
NtRp5812
(dp5813
g10
g16
sg12
(dp5814
F64
g1
(g18
g3
NtRp5815
(dp5816
g21
I00
sbsF52
g1
(g18
g3
NtRp5817
(dp5818
g21
I00
sbssbsF1005.6
g1
(g18
g3
NtRp5819
(dp5820
g21
I00
sbsF1005.3
g1
(g18
g3
NtRp5821
(dp5822
g21
I00
sbsF1004.6
g1
(g18
g3
NtRp5823
(dp5824
g21
I01
sbsF1003.3
g1
(g18
g3
NtRp5825
(dp5826
g21
I01
sbssbsF12.699999999999999
g1
(g18
g3
NtRp5827
(dp5828
g21
I00
sbsF12.4
g1
(g18
g3
NtRp5829
(dp5830
g21
I00
sbsF16.399999999999999
g1
(g7
g3
NtRp5831
(dp5832
g10
g67
sg12
(dp5833
F1012.8
g1
(g18
g3
NtRp5834
(dp5835
g21
I00
sbsF1010.4
g1
(g18
g3
NtRp5836
(dp5837
g21
I00
sbsF1012.4
g1
(g18
g3
NtRp5838
(dp5839
g21
I00
sbsF1010.7
g1
(g18
g3
NtRp5840
(dp5841
g21
I00
sbsF1009.7
g1
(g7
g3
NtRp5842
(dp5843
g10
g16
sg12
(dp5844
F50
g1
(g18
g3
NtRp5845
(dp5846
g21
I00
sbsF74
g1
(g18
g3
NtRp5847
(dp5848
g21
I00
sbssbsF1008.7
g1
(g18
g3
NtRp5849
(dp5850
g21
I00
sbsF1008.4
g1
(g18
g3
NtRp5851
(dp5852
g21
I00
sbsF1009.4
g1
(g18
g3
NtRp5853
(dp5854
g21
I00
sbsF1006.7
g1
(g7
g3
NtRp5855
(dp5856
g10
g16
sg12
(dp5857
F80
g1
(g18
g3
NtRp5858
(dp5859
g21
I00
sbsF59
g1
(g18
g3
NtRp5860
(dp5861
g21
I00
sbsF84
g1
(g18
g3
NtRp5862
(dp5863
g21
I00
sbssbsF1011.1
g1
(g18
g3
NtRp5864
(dp5865
g21
I00
sbsF1007
g1
(g7
g3
NtRp5866
(dp5867
g10
g16
sg12
(dp5868
F56
g1
(g18
g3
NtRp5869
(dp5870
g21
I01
sbsF57
g1
(g18
g3
NtRp5871
(dp5872
g21
I01
sbsF58
g1
(g18
g3
NtRp5873
(dp5874
g21
I01
sbsF59
g1
(g18
g3
NtRp5875
(dp5876
g21
I01
sbssbsF1008
g1
(g7
g3
NtRp5877
(dp5878
g10
g16
sg12
(dp5879
F72
g1
(g18
g3
NtRp5880
(dp5881
g21
I00
sbsF57
g1
(g18
g3
NtRp5882
(dp5883
g21
I00
sbssbsF1009
g1
(g18
g3
NtRp5884
(dp5885
g21
I00
sbsF1005.6
g1
(g18
g3
NtRp5886
(dp5887
g21
I00
sbsF1011.7
g1
(g18
g3
NtRp5888
(dp5889
g21
I00
sbsF1007.3
g1
(g18
g3
NtRp5890
(dp5891
g21
I00
sbsF1005.3
g1
(g18
g3
NtRp5892
(dp5893
g21
I00
sbssbsF18.600000000000001
g1
(g7
g3
NtRp5894
(dp5895
g10
g16
sg12
(dp5896
F64
g1
(g18
g3
NtRp5897
(dp5898
g21
I00
sbsF65
g1
(g18
g3
NtRp5899
(dp5900
g21
I00
sbsF66
g1
(g18
g3
NtRp5901
(dp5902
g21
I00
sbsF67
g1
(g18
g3
NtRp5903
(dp5904
g21
I00
sbsF68
g1
(g18
g3
NtRp5905
(dp5906
g21
I00
sbsF69
g1
(g18
g3
NtRp5907
(dp5908
g21
I00
sbsF70
g1
(g18
g3
NtRp5909
(dp5910
g21
I00
sbsF71
g1
(g18
g3
NtRp5911
(dp5912
g21
I00
sbsF73
g1
(g18
g3
NtRp5913
(dp5914
g21
I00
sbsF74
g1
(g18
g3
NtRp5915
(dp5916
g21
I00
sbsF44
g1
(g18
g3
NtRp5917
(dp5918
g21
I00
sbsF46
g1
(g18
g3
NtRp5919
(dp5920
g21
I00
sbsF49
g1
(g18
g3
NtRp5921
(dp5922
g21
I00
sbsF54
g1
(g18
g3
NtRp5923
(dp5924
g21
I01
sbsF55
g1
(g7
g3
NtRp5925
(dp5926
g10
g67
sg12
(dp5927
F1008
g1
(g18
g3
NtRp5928
(dp5929
g21
I00
sbsF1006.3
g1
(g18
g3
NtRp5930
(dp5931
g21
I00
sbssbsF56
g1
(g18
g3
NtRp5932
(dp5933
g21
I01
sbsF58
g1
(g7
g3
NtRp5934
(dp5935
g10
g67
sg12
(dp5936
F1005.3
g1
(g18
g3
NtRp5937
(dp5938
g21
I00
sbsF1006
g1
(g18
g3
NtRp5939
(dp5940
g21
I00
sbsF1007.7
g1
(g18
g3
NtRp5941
(dp5942
g21
I00
sbssbsF61
g1
(g18
g3
NtRp5943
(dp5944
g21
I00
sbssbsF15.300000000000001
g1
(g18
g3
NtRp5945
(dp5946
g21
I00
sbsF27.5
g1
(g7
g3
NtRp5947
(dp5948
g10
g16
sg12
(dp5949
F32
g1
(g18
g3
NtRp5950
(dp5951
g21
I00
sbsF33
g1
(g18
g3
NtRp5952
(dp5953
g21
I00
sbsF22
g1
(g18
g3
NtRp5954
(dp5955
g21
I00
sbsF26
g1
(g7
g3
NtRp5956
(dp5957
g10
g67
sg12
(dp5958
F1004.3
g1
(g18
g3
NtRp5959
(dp5960
g21
I00
sbsF1005.6
g1
(g18
g3
NtRp5961
(dp5962
g21
I00
sbssbsF27
g1
(g18
g3
NtRp5963
(dp5964
g21
I01
sbsF28
g1
(g7
g3
NtRp5965
(dp5966
g10
g67
sg12
(dp5967
F1005.3
g1
(g18
g3
NtRp5968
(dp5969
g21
I01
sbsF1003.6
g1
(g18
g3
NtRp5970
(dp5971
g21
I01
sbsF1006.7
g1
(g18
g3
NtRp5972
(dp5973
g21
I01
sbssbsF29
g1
(g18
g3
NtRp5974
(dp5975
g21
I00
sbsF31
g1
(g18
g3
NtRp5976
(dp5977
g21
I00
sbssbsF14.6
g1
(g18
g3
NtRp5978
(dp5979
g21
I00
sbsF18.699999999999999
g1
(g7
g3
NtRp5980
(dp5981
g10
g16
sg12
(dp5982
F66
g1
(g18
g3
NtRp5983
(dp5984
g21
I00
sbsF67
g1
(g18
g3
NtRp5985
(dp5986
g21
I00
sbsF68
g1
(g18
g3
NtRp5987
(dp5988
g21
I00
sbsF70
g1
(g18
g3
NtRp5989
(dp5990
g21
I00
sbsF72
g1
(g18
g3
NtRp5991
(dp5992
g21
I00
sbsF63
g1
(g18
g3
NtRp5993
(dp5994
g21
I00
sbsF42
g1
(g18
g3
NtRp5995
(dp5996
g21
I00
sbsF75
g1
(g18
g3
NtRp5997
(dp5998
g21
I00
sbsF77
g1
(g18
g3
NtRp5999
(dp6000
g21
I00
sbsF78
g1
(g18
g3
NtRp6001
(dp6002
g21
I00
sbsF47
g1
(g18
g3
NtRp6003
(dp6004
g21
I00
sbsF50
g1
(g18
g3
NtRp6005
(dp6006
g21
I00
sbsF46
g1
(g18
g3
NtRp6007
(dp6008
g21
I00
sbsF54
g1
(g18
g3
NtRp6009
(dp6010
g21
I01
sbsF55
g1
(g18
g3
NtRp6011
(dp6012
g21
I01
sbsF57
g1
(g18
g3
NtRp6013
(dp6014
g21
I00
sbsF58
g1
(g18
g3
NtRp6015
(dp6016
g21
I01
sbsF59
g1
(g7
g3
NtRp6017
(dp6018
g10
g67
sg12
(dp6019
F1005.3
g1
(g18
g3
NtRp6020
(dp6021
g21
I01
sbsF1003.6
g1
(g18
g3
NtRp6022
(dp6023
g21
I01
sbsF1006
g1
(g18
g3
NtRp6024
(dp6025
g21
I01
sbssbsF60
g1
(g18
g3
NtRp6026
(dp6027
g21
I01
sbsF74
g1
(g18
g3
NtRp6028
(dp6029
g21
I00
sbsF53
g1
(g7
g3
NtRp6030
(dp6031
g10
g67
sg12
(dp6032
F1005.6
g1
(g18
g3
NtRp6033
(dp6034
g21
I00
sbsF1007.7
g1
(g18
g3
NtRp6035
(dp6036
g21
I00
sbssbssbsF25.600000000000001
g1
(g7
g3
NtRp6037
(dp6038
g10
g67
sg12
(dp6039
F1004.3
g1
(g7
g3
NtRp6040
(dp6041
g10
g16
sg12
(dp6042
F40
g1
(g18
g3
NtRp6043
(dp6044
g21
I00
sbsF37
g1
(g18
g3
NtRp6045
(dp6046
g21
I00
sbssbsF1005.6
g1
(g18
g3
NtRp6047
(dp6048
g21
I01
sbsF1001.6
g1
(g18
g3
NtRp6049
(dp6050
g21
I01
sbsF1008.4
g1
(g18
g3
NtRp6051
(dp6052
g21
I00
sbsF1007.7
g1
(g18
g3
NtRp6053
(dp6054
g21
I00
sbsF1006.7
g1
(g18
g3
NtRp6055
(dp6056
g21
I00
sbsF1004.6
g1
(g7
g3
NtRp6057
(dp6058
g10
g16
sg12
(dp6059
F33
g1
(g18
g3
NtRp6060
(dp6061
g21
I01
sbsF34
g1
(g18
g3
NtRp6062
(dp6063
g21
I01
sbsF36
g1
(g18
g3
NtRp6064
(dp6065
g21
I01
sbssbsF1009.4
g1
(g18
g3
NtRp6066
(dp6067
g21
I00
sbsF1008.7
g1
(g18
g3
NtRp6068
(dp6069
g21
I00
sbsF1006
g1
(g7
g3
NtRp6070
(dp6071
g10
g16
sg12
(dp6072
F23
g1
(g18
g3
NtRp6073
(dp6074
g21
I00
sbsF31
g1
(g18
g3
NtRp6075
(dp6076
g21
I00
sbssbsF1005
g1
(g7
g3
NtRp6077
(dp6078
g10
g16
sg12
(dp6079
F40
g1
(g18
g3
NtRp6080
(dp6081
g21
I00
sbsF20
g1
(g18
g3
NtRp6082
(dp6083
g21
I00
sbssbsF1008
g1
(g18
g3
NtRp6084
(dp6085
g21
I00
sbsF1003.6
g1
(g18
g3
NtRp6086
(dp6087
g21
I01
sbsF1002.9
g1
(g18
g3
NtRp6088
(dp6089
g21
I00
sbsF1002.3
g1
(g18
g3
NtRp6090
(dp6091
g21
I01
sbsF1007.3
g1
(g18
g3
NtRp6092
(dp6093
g21
I00
sbsF1005.3
g1
(g18
g3
NtRp6094
(dp6095
g21
I00
sbsF1007
g1
(g18
g3
NtRp6096
(dp6097
g21
I00
sbssbsF16.699999999999999
g1
(g7
g3
NtRp6098
(dp6099
g10
g67
sg12
(dp6100
F1009.4
g1
(g18
g3
NtRp6101
(dp6102
g21
I00
sbsF1011.7
g1
(g18
g3
NtRp6103
(dp6104
g21
I00
sbsF1008.7
g1
(g18
g3
NtRp6105
(dp6106
g21
I00
sbsF1010.4
g1
(g18
g3
NtRp6107
(dp6108
g21
I00
sbsF1008.4
g1
(g18
g3
NtRp6109
(dp6110
g21
I00
sbsF1010.7
g1
(g18
g3
NtRp6111
(dp6112
g21
I00
sbsF1007
g1
(g18
g3
NtRp6113
(dp6114
g21
I00
sbsF1008
g1
(g18
g3
NtRp6115
(dp6116
g21
I01
sbsF1009
g1
(g7
g3
NtRp6117
(dp6118
g10
g16
sg12
(dp6119
F60
g1
(g18
g3
NtRp6120
(dp6121
g21
I01
sbsF76
g1
(g18
g3
NtRp6122
(dp6123
g21
I01
sbssbsF1010
g1
(g18
g3
NtRp6124
(dp6125
g21
I00
sbsF1012.8
g1
(g18
g3
NtRp6126
(dp6127
g21
I00
sbsF1007.3
g1
(g7
g3
NtRp6128
(dp6129
g10
g16
sg12
(dp6130
F57
g1
(g18
g3
NtRp6131
(dp6132
g21
I00
sbsF66
g1
(g18
g3
NtRp6133
(dp6134
g21
I00
sbsF75
g1
(g18
g3
NtRp6135
(dp6136
g21
I00
sbsF58
g1
(g18
g3
NtRp6137
(dp6138
g21
I00
sbssbssbsF18.399999999999999
g1
(g7
g3
NtRp6139
(dp6140
g10
g67
sg12
(dp6141
F1011.1
g1
(g18
g3
NtRp6142
(dp6143
g21
I00
sbsF1012.4
g1
(g18
g3
NtRp6144
(dp6145
g21
I00
sbsF1011.7
g1
(g18
g3
NtRp6146
(dp6147
g21
I00
sbsF1013.4
g1
(g18
g3
NtRp6148
(dp6149
g21
I00
sbsF1009.4
g1
(g18
g3
NtRp6150
(dp6151
g21
I00
sbsF1006
g1
(g18
g3
NtRp6152
(dp6153
g21
I00
sbsF1007
g1
(g18
g3
NtRp6154
(dp6155
g21
I01
sbsF1008
g1
(g18
g3
NtRp6156
(dp6157
g21
I00
sbsF1009
g1
(g18
g3
NtRp6158
(dp6159
g21
I00
sbsF1010
g1
(g7
g3
NtRp6160
(dp6161
g10
g16
sg12
(dp6162
F72
g1
(g18
g3
NtRp6163
(dp6164
g21
I00
sbsF55
g1
(g18
g3
NtRp6165
(dp6166
g21
I00
sbssbsF1005.6
g1
(g18
g3
NtRp6167
(dp6168
g21
I00
sbsF1010.4
g1
(g18
g3
NtRp6169
(dp6170
g21
I00
sbsF1007.3
g1
(g7
g3
NtRp6171
(dp6172
g10
g16
sg12
(dp6173
F74
g1
(g18
g3
NtRp6174
(dp6175
g21
I00
sbsF51
g1
(g18
g3
NtRp6176
(dp6177
g21
I00
sbsF60
g1
(g18
g3
NtRp6178
(dp6179
g21
I00
sbssbsF1006.3
g1
(g18
g3
NtRp6180
(dp6181
g21
I01
sbsF1012.1
g1
(g18
g3
NtRp6182
(dp6183
g21
I00
sbssbsF28.399999999999999
g1
(g7
g3
NtRp6184
(dp6185
g10
g16
sg12
(dp6186
F33
g1
(g18
g3
NtRp6187
(dp6188
g21
I01
sbsF34
g1
(g18
g3
NtRp6189
(dp6190
g21
I01
sbsF36
g1
(g18
g3
NtRp6191
(dp6192
g21
I00
sbsF20
g1
(g18
g3
NtRp6193
(dp6194
g21
I00
sbsF21
g1
(g18
g3
NtRp6195
(dp6196
g21
I01
sbsF22
g1
(g18
g3
NtRp6197
(dp6198
g21
I00
sbsF23
g1
(g7
g3
NtRp6199
(dp6200
g10
g67
sg12
(dp6201
F1003.3
g1
(g18
g3
NtRp6202
(dp6203
g21
I00
sbsF1006
g1
(g18
g3
NtRp6204
(dp6205
g21
I00
sbsF1007.3
g1
(g18
g3
NtRp6206
(dp6207
g21
I00
sbssbsF26
g1
(g7
g3
NtRp6208
(dp6209
g10
g67
sg12
(dp6210
F1003.3
g1
(g18
g3
NtRp6211
(dp6212
g21
I00
sbsF1002.9
g1
(g18
g3
NtRp6213
(dp6214
g21
I00
sbssbsF27
g1
(g7
g3
NtRp6215
(dp6216
g10
g67
sg12
(dp6217
F1003.3
g1
(g18
g3
NtRp6218
(dp6219
g21
I00
sbsF1001.9
g1
(g18
g3
NtRp6220
(dp6221
g21
I00
sbssbsF28
g1
(g7
g3
NtRp6222
(dp6223
g10
g67
sg12
(dp6224
F1004.3
g1
(g18
g3
NtRp6225
(dp6226
g21
I01
sbsF1003.6
g1
(g18
g3
NtRp6227
(dp6228
g21
I01
sbsF1001.2
g1
(g18
g3
NtRp6229
(dp6230
g21
I01
sbssbsF29
g1
(g18
g3
NtRp6231
(dp6232
g21
I01
sbssbsF27.899999999999999
g1
(g7
g3
NtRp6233
(dp6234
g10
g16
sg12
(dp6235
F33
g1
(g18
g3
NtRp6236
(dp6237
g21
I00
sbsF35
g1
(g18
g3
NtRp6238
(dp6239
g21
I00
sbsF36
g1
(g18
g3
NtRp6240
(dp6241
g21
I00
sbsF19
g1
(g18
g3
NtRp6242
(dp6243
g21
I01
sbsF20
g1
(g18
g3
NtRp6244
(dp6245
g21
I01
sbsF21
g1
(g18
g3
NtRp6246
(dp6247
g21
I01
sbsF24
g1
(g7
g3
NtRp6248
(dp6249
g10
g67
sg12
(dp6250
F1007.3
g1
(g18
g3
NtRp6251
(dp6252
g21
I00
sbsF1004.6
g1
(g18
g3
NtRp6253
(dp6254
g21
I00
sbsF1007
g1
(g18
g3
NtRp6255
(dp6256
g21
I00
sbssbsF26
g1
(g18
g3
NtRp6257
(dp6258
g21
I01
sbsF27
g1
(g18
g3
NtRp6259
(dp6260
g21
I01
sbsF30
g1
(g7
g3
NtRp6261
(dp6262
g10
g67
sg12
(dp6263
F1006.3
g1
(g18
g3
NtRp6264
(dp6265
g21
I00
sbsF1001.9
g1
(g18
g3
NtRp6266
(dp6267
g21
I00
sbsF1005
g1
(g18
g3
NtRp6268
(dp6269
g21
I00
sbsF1006.7
g1
(g18
g3
NtRp6270
(dp6271
g21
I00
sbssbsF31
g1
(g18
g3
NtRp6272
(dp6273
g21
I00
sbssbsF27.100000000000001
g1
(g7
g3
NtRp6274
(dp6275
g10
g16
sg12
(dp6276
F32
g1
(g7
g3
NtRp6277
(dp6278
g10
g67
sg12
(dp6279
F1002.6
g1
(g18
g3
NtRp6280
(dp6281
g21
I00
sbsF1003.6
g1
(g18
g3
NtRp6282
(dp6283
g21
I00
sbssbsF34
g1
(g7
g3
NtRp6284
(dp6285
g10
g67
sg12
(dp6286
F1006.3
g1
(g18
g3
NtRp6287
(dp6288
g21
I00
sbsF1001.2
g1
(g18
g3
NtRp6289
(dp6290
g21
I00
sbssbsF36
g1
(g18
g3
NtRp6291
(dp6292
g21
I01
sbsF37
g1
(g18
g3
NtRp6293
(dp6294
g21
I00
sbsF21
g1
(g18
g3
NtRp6295
(dp6296
g21
I01
sbsF25
g1
(g18
g3
NtRp6297
(dp6298
g21
I00
sbsF26
g1
(g7
g3
NtRp6299
(dp6300
g10
g67
sg12
(dp6301
F1004.3
g1
(g18
g3
NtRp6302
(dp6303
g21
I00
sbsF1006.7
g1
(g18
g3
NtRp6304
(dp6305
g21
I00
sbssbsF27
g1
(g18
g3
NtRp6306
(dp6307
g21
I01
sbsF28
g1
(g18
g3
NtRp6308
(dp6309
g21
I01
sbsF29
g1
(g7
g3
NtRp6310
(dp6311
g10
g67
sg12
(dp6312
F1005.3
g1
(g18
g3
NtRp6313
(dp6314
g21
I01
sbsF1004.3
g1
(g18
g3
NtRp6315
(dp6316
g21
I01
sbsF1005.6
g1
(g18
g3
NtRp6317
(dp6318
g21
I01
sbsF1003.9
g1
(g18
g3
NtRp6319
(dp6320
g21
I01
sbsF1003.3
g1
(g18
g3
NtRp6321
(dp6322
g21
I01
sbssbsF30
g1
(g7
g3
NtRp6323
(dp6324
g10
g67
sg12
(dp6325
F1004.3
g1
(g18
g3
NtRp6326
(dp6327
g21
I00
sbsF1004.6
g1
(g18
g3
NtRp6328
(dp6329
g21
I00
sbsF1007
g1
(g18
g3
NtRp6330
(dp6331
g21
I00
sbsF1007.3
g1
(g18
g3
NtRp6332
(dp6333
g21
I00
sbssbsF31
g1
(g18
g3
NtRp6334
(dp6335
g21
I00
sbssbsF22.800000000000001
g1
(g7
g3
NtRp6336
(dp6337
g10
g67
sg12
(dp6338
F1007.3
g1
(g18
g3
NtRp6339
(dp6340
g21
I00
sbsF1004.6
g1
(g18
g3
NtRp6341
(dp6342
g21
I00
sbsF1009.4
g1
(g18
g3
NtRp6343
(dp6344
g21
I00
sbsF1009.7
g1
(g18
g3
NtRp6345
(dp6346
g21
I00
sbsF1007.7
g1
(g7
g3
NtRp6347
(dp6348
g10
g16
sg12
(dp6349
F41
g1
(g18
g3
NtRp6350
(dp6351
g21
I00
sbssbsF1010.7
g1
(g18
g3
NtRp6352
(dp6353
g21
I00
sbsF1010.4
g1
(g18
g3
NtRp6354
(dp6355
g21
I00
sbsF1003.9
g1
(g18
g3
NtRp6356
(dp6357
g21
I00
sbsF1008.7
g1
(g18
g3
NtRp6358
(dp6359
g21
I00
sbsF1006.7
g1
(g18
g3
NtRp6360
(dp6361
g21
I00
sbsF1008
g1
(g7
g3
NtRp6362
(dp6363
g10
g16
sg12
(dp6364
F49
g1
(g18
g3
NtRp6365
(dp6366
g21
I01
sbsF43
g1
(g18
g3
NtRp6367
(dp6368
g21
I01
sbsF44
g1
(g18
g3
NtRp6369
(dp6370
g21
I01
sbssbsF1009
g1
(g18
g3
NtRp6371
(dp6372
g21
I00
sbsF1010
g1
(g18
g3
NtRp6373
(dp6374
g21
I01
sbsF1011.1
g1
(g18
g3
NtRp6375
(dp6376
g21
I00
sbsF1006.3
g1
(g18
g3
NtRp6377
(dp6378
g21
I00
sbsF1004.3
g1
(g18
g3
NtRp6379
(dp6380
g21
I00
sbssbsF15.699999999999999
g1
(g7
g3
NtRp6381
(dp6382
g10
g67
sg12
(dp6383
F1011.1
g1
(g18
g3
NtRp6384
(dp6385
g21
I00
sbsF1012.4
g1
(g18
g3
NtRp6386
(dp6387
g21
I00
sbsF1010.7
g1
(g18
g3
NtRp6388
(dp6389
g21
I00
sbsF1006.7
g1
(g7
g3
NtRp6390
(dp6391
g10
g16
sg12
(dp6392
F59
g1
(g18
g3
NtRp6393
(dp6394
g21
I00
sbsF58
g1
(g18
g3
NtRp6395
(dp6396
g21
I00
sbsF83
g1
(g18
g3
NtRp6397
(dp6398
g21
I00
sbsF76
g1
(g18
g3
NtRp6399
(dp6400
g21
I00
sbsF82
g1
(g18
g3
NtRp6401
(dp6402
g21
I00
sbssbsF1008.7
g1
(g18
g3
NtRp6403
(dp6404
g21
I00
sbsF1011.4
g1
(g18
g3
NtRp6405
(dp6406
g21
I00
sbsF1008.4
g1
(g18
g3
NtRp6407
(dp6408
g21
I00
sbsF1009.7
g1
(g18
g3
NtRp6409
(dp6410
g21
I00
sbsF1007
g1
(g18
g3
NtRp6411
(dp6412
g21
I01
sbsF1008
g1
(g18
g3
NtRp6413
(dp6414
g21
I00
sbsF1009
g1
(g18
g3
NtRp6415
(dp6416
g21
I00
sbsF1010
g1
(g18
g3
NtRp6417
(dp6418
g21
I00
sbsF1013.1
g1
(g18
g3
NtRp6419
(dp6420
g21
I00
sbsF1007.3
g1
(g18
g3
NtRp6421
(dp6422
g21
I00
sbssbsF24.100000000000001
g1
(g7
g3
NtRp6423
(dp6424
g10
g67
sg12
(dp6425
F1006.3
g1
(g18
g3
NtRp6426
(dp6427
g21
I01
sbsF1005.6
g1
(g18
g3
NtRp6428
(dp6429
g21
I00
sbsF1012.4
g1
(g18
g3
NtRp6430
(dp6431
g21
I00
sbsF1007.7
g1
(g18
g3
NtRp6432
(dp6433
g21
I00
sbsF1009.7
g1
(g18
g3
NtRp6434
(dp6435
g21
I00
sbsF1008.7
g1
(g18
g3
NtRp6436
(dp6437
g21
I00
sbsF1003.9
g1
(g18
g3
NtRp6438
(dp6439
g21
I00
sbsF1002.9
g1
(g7
g3
NtRp6440
(dp6441
g10
g16
sg12
(dp6442
F41
g1
(g18
g3
NtRp6443
(dp6444
g21
I00
sbsF35
g1
(g18
g3
NtRp6445
(dp6446
g21
I00
sbssbsF1006.7
g1
(g18
g3
NtRp6447
(dp6448
g21
I00
sbsF1006
g1
(g7
g3
NtRp6449
(dp6450
g10
g16
sg12
(dp6451
F41
g1
(g18
g3
NtRp6452
(dp6453
g21
I00
sbsF34
g1
(g18
g3
NtRp6454
(dp6455
g21
I00
sbsF44
g1
(g18
g3
NtRp6456
(dp6457
g21
I00
sbssbsF1005
g1
(g18
g3
NtRp6458
(dp6459
g21
I00
sbsF1008
g1
(g18
g3
NtRp6460
(dp6461
g21
I00
sbsF1009
g1
(g18
g3
NtRp6462
(dp6463
g21
I00
sbsF1010
g1
(g7
g3
NtRp6464
(dp6465
g10
g16
sg12
(dp6466
F50
g1
(g18
g3
NtRp6467
(dp6468
g21
I00
sbsF30
g1
(g18
g3
NtRp6469
(dp6470
g21
I00
sbssbsF1003.6
g1
(g18
g3
NtRp6471
(dp6472
g21
I00
sbsF1007.3
g1
(g7
g3
NtRp6473
(dp6474
g10
g16
sg12
(dp6475
F43
g1
(g18
g3
NtRp6476
(dp6477
g21
I00
sbsF28
g1
(g18
g3
NtRp6478
(dp6479
g21
I00
sbssbsF1004.3
g1
(g18
g3
NtRp6480
(dp6481
g21
I01
sbsF1007
g1
(g7
g3
NtRp6482
(dp6483
g10
g16
sg12
(dp6484
F49
g1
(g18
g3
NtRp6485
(dp6486
g21
I01
sbsF47
g1
(g18
g3
NtRp6487
(dp6488
g21
I01
sbsF44
g1
(g18
g3
NtRp6489
(dp6490
g21
I01
sbsF37
g1
(g18
g3
NtRp6491
(dp6492
g21
I01
sbsF45
g1
(g18
g3
NtRp6493
(dp6494
g21
I01
sbssbssbsF25.800000000000001
g1
(g7
g3
NtRp6495
(dp6496
g10
g67
sg12
(dp6497
F1006.3
g1
(g7
g3
NtRp6498
(dp6499
g10
g16
sg12
(dp6500
F27
g1
(g18
g3
NtRp6501
(dp6502
g21
I00
sbsF23
g1
(g18
g3
NtRp6503
(dp6504
g21
I00
sbssbsF1004.6
g1
(g7
g3
NtRp6505
(dp6506
g10
g16
sg12
(dp6507
F40
g1
(g18
g3
NtRp6508
(dp6509
g21
I00
sbsF32
g1
(g18
g3
NtRp6510
(dp6511
g21
I00
sbsF39
g1
(g18
g3
NtRp6512
(dp6513
g21
I00
sbssbsF1007.7
g1
(g18
g3
NtRp6514
(dp6515
g21
I00
sbsF1006.7
g1
(g18
g3
NtRp6516
(dp6517
g21
I01
sbsF1003.6
g1
(g18
g3
NtRp6518
(dp6519
g21
I01
sbsF1003.9
g1
(g18
g3
NtRp6520
(dp6521
g21
I00
sbsF1001.2
g1
(g18
g3
NtRp6522
(dp6523
g21
I01
sbsF1006
g1
(g18
g3
NtRp6524
(dp6525
g21
I01
sbsF1005
g1
(g18
g3
NtRp6526
(dp6527
g21
I00
sbsF1009
g1
(g18
g3
NtRp6528
(dp6529
g21
I00
sbsF1005.6
g1
(g18
g3
NtRp6530
(dp6531
g21
I00
sbsF1004.3
g1
(g7
g3
NtRp6532
(dp6533
g10
g16
sg12
(dp6534
F29
g1
(g18
g3
NtRp6535
(dp6536
g21
I00
sbsF38
g1
(g18
g3
NtRp6537
(dp6538
g21
I00
sbssbsF1005.3
g1
(g18
g3
NtRp6539
(dp6540
g21
I01
sbsF1007.3
g1
(g18
g3
NtRp6541
(dp6542
g21
I00
sbsF1002.6
g1
(g18
g3
NtRp6543
(dp6544
g21
I00
sbssbsF17.199999999999999
g1
(g7
g3
NtRp6545
(dp6546
g10
g16
sg12
(dp6547
F84
g1
(g18
g3
NtRp6548
(dp6549
g21
I00
sbsF68
g1
(g18
g3
NtRp6550
(dp6551
g21
I00
sbsF69
g1
(g18
g3
NtRp6552
(dp6553
g21
I00
sbsF71
g1
(g18
g3
NtRp6554
(dp6555
g21
I00
sbsF72
g1
(g18
g3
NtRp6556
(dp6557
g21
I00
sbsF74
g1
(g18
g3
NtRp6558
(dp6559
g21
I00
sbsF75
g1
(g18
g3
NtRp6560
(dp6561
g21
I00
sbsF76
g1
(g18
g3
NtRp6562
(dp6563
g21
I00
sbsF77
g1
(g18
g3
NtRp6564
(dp6565
g21
I00
sbsF78
g1
(g18
g3
NtRp6566
(dp6567
g21
I00
sbsF79
g1
(g18
g3
NtRp6568
(dp6569
g21
I00
sbsF80
g1
(g18
g3
NtRp6570
(dp6571
g21
I00
sbsF83
g1
(g18
g3
NtRp6572
(dp6573
g21
I00
sbsF52
g1
(g18
g3
NtRp6574
(dp6575
g21
I00
sbsF85
g1
(g18
g3
NtRp6576
(dp6577
g21
I00
sbsF54
g1
(g18
g3
NtRp6578
(dp6579
g21
I00
sbsF57
g1
(g18
g3
NtRp6580
(dp6581
g21
I01
sbsF58
g1
(g18
g3
NtRp6582
(dp6583
g21
I01
sbsF59
g1
(g18
g3
NtRp6584
(dp6585
g21
I00
sbsF60
g1
(g18
g3
NtRp6586
(dp6587
g21
I00
sbsF62
g1
(g18
g3
NtRp6588
(dp6589
g21
I00
sbssbsF18.899999999999999
g1
(g7
g3
NtRp6590
(dp6591
g10
g67
sg12
(dp6592
F1011.1
g1
(g18
g3
NtRp6593
(dp6594
g21
I00
sbsF1010.4
g1
(g18
g3
NtRp6595
(dp6596
g21
I00
sbsF1011.7
g1
(g18
g3
NtRp6597
(dp6598
g21
I00
sbsF1009.7
g1
(g18
g3
NtRp6599
(dp6600
g21
I00
sbsF1007.7
g1
(g7
g3
NtRp6601
(dp6602
g10
g16
sg12
(dp6603
F56
g1
(g18
g3
NtRp6604
(dp6605
g21
I00
sbsF51
g1
(g18
g3
NtRp6606
(dp6607
g21
I00
sbssbsF1005.6
g1
(g7
g3
NtRp6608
(dp6609
g10
g16
sg12
(dp6610
F59
g1
(g18
g3
NtRp6611
(dp6612
g21
I00
sbsF58
g1
(g18
g3
NtRp6613
(dp6614
g21
I00
sbsF51
g1
(g18
g3
NtRp6615
(dp6616
g21
I00
sbsF76
g1
(g18
g3
NtRp6617
(dp6618
g21
I00
sbssbsF1003.9
g1
(g18
g3
NtRp6619
(dp6620
g21
I01
sbsF1008.7
g1
(g18
g3
NtRp6621
(dp6622
g21
I00
sbsF1006
g1
(g18
g3
NtRp6623
(dp6624
g21
I00
sbsF1008
g1
(g18
g3
NtRp6625
(dp6626
g21
I00
sbsF1009
g1
(g18
g3
NtRp6627
(dp6628
g21
I00
sbsF1010
g1
(g7
g3
NtRp6629
(dp6630
g10
g16
sg12
(dp6631
F66
g1
(g18
g3
NtRp6632
(dp6633
g21
I00
sbsF53
g1
(g18
g3
NtRp6634
(dp6635
g21
I00
sbssbsF1012.1
g1
(g18
g3
NtRp6636
(dp6637
g21
I00
sbsF1004.6
g1
(g18
g3
NtRp6638
(dp6639
g21
I01
sbsF1006.3
g1
(g18
g3
NtRp6640
(dp6641
g21
I00
sbsF1003.6
g1
(g18
g3
NtRp6642
(dp6643
g21
I01
sbssbsF25.5
g1
(g7
g3
NtRp6644
(dp6645
g10
g16
sg12
(dp6646
F32
g1
(g18
g3
NtRp6647
(dp6648
g21
I01
sbsF33
g1
(g18
g3
NtRp6649
(dp6650
g21
I00
sbsF34
g1
(g18
g3
NtRp6651
(dp6652
g21
I00
sbsF36
g1
(g18
g3
NtRp6653
(dp6654
g21
I00
sbsF28
g1
(g18
g3
NtRp6655
(dp6656
g21
I00
sbsF30
g1
(g18
g3
NtRp6657
(dp6658
g21
I00
sbssbsF25.199999999999999
g1
(g7
g3
NtRp6659
(dp6660
g10
g16
sg12
(dp6661
F32
g1
(g18
g3
NtRp6662
(dp6663
g21
I01
sbsF34
g1
(g18
g3
NtRp6664
(dp6665
g21
I00
sbsF35
g1
(g7
g3
NtRp6666
(dp6667
g10
g67
sg12
(dp6668
F1009.4
g1
(g18
g3
NtRp6669
(dp6670
g21
I00
sbsF1006
g1
(g18
g3
NtRp6671
(dp6672
g21
I00
sbssbsF36
g1
(g18
g3
NtRp6673
(dp6674
g21
I00
sbsF37
g1
(g18
g3
NtRp6675
(dp6676
g21
I00
sbsF40
g1
(g18
g3
NtRp6677
(dp6678
g21
I00
sbsF41
g1
(g18
g3
NtRp6679
(dp6680
g21
I00
sbsF43
g1
(g18
g3
NtRp6681
(dp6682
g21
I00
sbsF44
g1
(g18
g3
NtRp6683
(dp6684
g21
I00
sbsF46
g1
(g18
g3
NtRp6685
(dp6686
g21
I00
sbsF23
g1
(g18
g3
NtRp6687
(dp6688
g21
I01
sbsF24
g1
(g7
g3
NtRp6689
(dp6690
g10
g67
sg12
(dp6691
F1005.3
g1
(g18
g3
NtRp6692
(dp6693
g21
I00
sbsF1004.6
g1
(g18
g3
NtRp6694
(dp6695
g21
I00
sbsF1006.7
g1
(g18
g3
NtRp6696
(dp6697
g21
I00
sbssbsF28
g1
(g18
g3
NtRp6698
(dp6699
g21
I00
sbsF29
g1
(g18
g3
NtRp6700
(dp6701
g21
I01
sbsF31
g1
(g18
g3
NtRp6702
(dp6703
g21
I00
sbssbsF26.899999999999999
g1
(g7
g3
NtRp6704
(dp6705
g10
g67
sg12
(dp6706
F1004.3
g1
(g18
g3
NtRp6707
(dp6708
g21
I01
sbsF1003.6
g1
(g7
g3
NtRp6709
(dp6710
g10
g16
sg12
(dp6711
F25
g1
(g18
g3
NtRp6712
(dp6713
g21
I00
sbsF31
g1
(g18
g3
NtRp6714
(dp6715
g21
I00
sbsF29
g1
(g18
g3
NtRp6716
(dp6717
g21
I00
sbsF33
g1
(g18
g3
NtRp6718
(dp6719
g21
I00
sbssbsF1001.9
g1
(g18
g3
NtRp6720
(dp6721
g21
I00
sbsF1001.2
g1
(g7
g3
NtRp6722
(dp6723
g10
g16
sg12
(dp6724
F33
g1
(g18
g3
NtRp6725
(dp6726
g21
I00
sbsF29
g1
(g18
g3
NtRp6727
(dp6728
g21
I00
sbsF30
g1
(g18
g3
NtRp6729
(dp6730
g21
I00
sbsF31
g1
(g18
g3
NtRp6731
(dp6732
g21
I00
sbssbsF1003.9
g1
(g7
g3
NtRp6733
(dp6734
g10
g16
sg12
(dp6735
F27
g1
(g18
g3
NtRp6736
(dp6737
g21
I01
sbsF28
g1
(g18
g3
NtRp6738
(dp6739
g21
I01
sbsF30
g1
(g18
g3
NtRp6740
(dp6741
g21
I01
sbssbsF1002.9
g1
(g18
g3
NtRp6742
(dp6743
g21
I01
sbsF1005
g1
(g18
g3
NtRp6744
(dp6745
g21
I01
sbsF1006
g1
(g18
g3
NtRp6746
(dp6747
g21
I00
sbsF1007
g1
(g7
g3
NtRp6748
(dp6749
g10
g16
sg12
(dp6750
F28
g1
(g18
g3
NtRp6751
(dp6752
g21
I00
sbsF37
g1
(g18
g3
NtRp6753
(dp6754
g21
I00
sbssbsF1008
g1
(g18
g3
NtRp6755
(dp6756
g21
I00
sbsF1004.6
g1
(g18
g3
NtRp6757
(dp6758
g21
I01
sbsF1005.6
g1
(g18
g3
NtRp6759
(dp6760
g21
I00
sbsF1006.3
g1
(g7
g3
NtRp6761
(dp6762
g10
g16
sg12
(dp6763
F36
g1
(g18
g3
NtRp6764
(dp6765
g21
I00
sbsF31
g1
(g18
g3
NtRp6766
(dp6767
g21
I00
sbssbsF1005.3
g1
(g7
g3
NtRp6768
(dp6769
g10
g16
sg12
(dp6770
F32
g1
(g18
g3
NtRp6771
(dp6772
g21
I00
sbsF23
g1
(g18
g3
NtRp6773
(dp6774
g21
I00
sbssbsF1003.3
g1
(g18
g3
NtRp6775
(dp6776
g21
I01
sbssbsF12.9
g1
(g18
g3
NtRp6777
(dp6778
g21
I00
sbsF19.600000000000001
g1
(g7
g3
NtRp6779
(dp6780
g10
g67
sg12
(dp6781
F1013.4
g1
(g18
g3
NtRp6782
(dp6783
g21
I00
sbsF1010.4
g1
(g18
g3
NtRp6784
(dp6785
g21
I00
sbsF1011.4
g1
(g18
g3
NtRp6786
(dp6787
g21
I00
sbsF1009.7
g1
(g7
g3
NtRp6788
(dp6789
g10
g16
sg12
(dp6790
F51
g1
(g18
g3
NtRp6791
(dp6792
g21
I00
sbsF62
g1
(g18
g3
NtRp6793
(dp6794
g21
I00
sbssbsF1008.7
g1
(g7
g3
NtRp6795
(dp6796
g10
g16
sg12
(dp6797
F60
g1
(g18
g3
NtRp6798
(dp6799
g21
I00
sbsF45
g1
(g18
g3
NtRp6800
(dp6801
g21
I00
sbssbsF1012.4
g1
(g18
g3
NtRp6802
(dp6803
g21
I00
sbsF1008.4
g1
(g18
g3
NtRp6804
(dp6805
g21
I00
sbsF1011.7
g1
(g18
g3
NtRp6806
(dp6807
g21
I00
sbsF1006
g1
(g18
g3
NtRp6808
(dp6809
g21
I00
sbsF1005
g1
(g18
g3
NtRp6810
(dp6811
g21
I00
sbsF1008
g1
(g18
g3
NtRp6812
(dp6813
g21
I00
sbsF1009
g1
(g18
g3
NtRp6814
(dp6815
g21
I00
sbsF1010
g1
(g18
g3
NtRp6816
(dp6817
g21
I00
sbsF1005.6
g1
(g18
g3
NtRp6818
(dp6819
g21
I00
sbsF1003.9
g1
(g18
g3
NtRp6820
(dp6821
g21
I01
sbsF1006.3
g1
(g18
g3
NtRp6822
(dp6823
g21
I00
sbsF1004.6
g1
(g18
g3
NtRp6824
(dp6825
g21
I01
sbsF1004.3
g1
(g18
g3
NtRp6826
(dp6827
g21
I01
sbsF1007.3
g1
(g18
g3
NtRp6828
(dp6829
g21
I00
sbsF1007
g1
(g18
g3
NtRp6830
(dp6831
g21
I00
sbsF1002.6
g1
(g18
g3
NtRp6832
(dp6833
g21
I00
sbssbssbsS'_attrs'
p6834
(lp6835
g16
ag11
ag67
asb.